(lp0
(lp1
S'17.4969'
p2
aS'78.3917'
p3
aa(lp4
S'17.4969'
p5
aS'78.3916'
p6
aa(lp7
S'17.4969'
p8
aS'78.3916'
p9
aa(lp10
S'17.4969'
p11
aS'78.3916'
p12
aa(lp13
S'17.4969'
p14
aS'78.3916'
p15
aa(lp16
S'17.4969'
p17
aS'78.3916'
p18
aa(lp19
S'17.4969'
p20
aS'78.3916'
p21
aa(lp22
S'17.4969'
p23
aS'78.3916'
p24
aa(lp25
S'17.4969'
p26
aS'78.3916'
p27
aa(lp28
S'17.4969'
p29
aS'78.3916'
p30
aa(lp31
S'17.4969'
p32
aS'78.3916'
p33
aa(lp34
S'17.4969'
p35
aS'78.3915'
p36
aa(lp37
S'17.4969'
p38
aS'78.3915'
p39
aa(lp40
S'17.4969'
p41
aS'78.3915'
p42
aa(lp43
S'17.4969'
p44
aS'78.3915'
p45
aa(lp46
S'17.4969'
p47
aS'78.3915'
p48
aa(lp49
S'17.4969'
p50
aS'78.3915'
p51
aa(lp52
S'17.4969'
p53
aS'78.3915'
p54
aa(lp55
S'17.4969'
p56
aS'78.3915'
p57
aa(lp58
S'17.4969'
p59
aS'78.3915'
p60
aa(lp61
S'17.4969'
p62
aS'78.3915'
p63
aa(lp64
S'17.4969'
p65
aS'78.3915'
p66
aa(lp67
S'17.4969'
p68
aS'78.3914'
p69
aa(lp70
S'17.4969'
p71
aS'78.3914'
p72
aa(lp73
S'17.4969'
p74
aS'78.3914'
p75
aa(lp76
S'17.4969'
p77
aS'78.3914'
p78
aa(lp79
S'17.4969'
p80
aS'78.3914'
p81
aa(lp82
S'17.4969'
p83
aS'78.3914'
p84
aa(lp85
S'17.4969'
p86
aS'78.3914'
p87
aa(lp88
S'17.4969'
p89
aS'78.3914'
p90
aa(lp91
S'17.4969'
p92
aS'78.3914'
p93
aa(lp94
S'17.4969'
p95
aS'78.3914'
p96
aa(lp97
S'17.4969'
p98
aS'78.3914'
p99
aa(lp100
S'17.4969'
p101
aS'78.3913'
p102
aa(lp103
S'17.4969'
p104
aS'78.3913'
p105
aa(lp106
S'17.4969'
p107
aS'78.3913'
p108
aa(lp109
S'17.4969'
p110
aS'78.3913'
p111
aa(lp112
S'17.4969'
p113
aS'78.3913'
p114
aa(lp115
S'17.4969'
p116
aS'78.3913'
p117
aa(lp118
S'17.4969'
p119
aS'78.3913'
p120
aa(lp121
S'17.4969'
p122
aS'78.3913'
p123
aa(lp124
S'17.4969'
p125
aS'78.3913'
p126
aa(lp127
S'17.4969'
p128
aS'78.3913'
p129
aa(lp130
S'17.4969'
p131
aS'78.3912'
p132
aa(lp133
S'17.4969'
p134
aS'78.3912'
p135
aa(lp136
S'17.4969'
p137
aS'78.3912'
p138
aa(lp139
S'17.4969'
p140
aS'78.3912'
p141
aa(lp142
S'17.4969'
p143
aS'78.3912'
p144
aa(lp145
S'17.4969'
p146
aS'78.3912'
p147
aa(lp148
S'17.4969'
p149
aS'78.3912'
p150
aa(lp151
S'17.4969'
p152
aS'78.3912'
p153
aa(lp154
S'17.4969'
p155
aS'78.3912'
p156
aa(lp157
S'17.4969'
p158
aS'78.3912'
p159
aa(lp160
S'17.4969'
p161
aS'78.3912'
p162
aa(lp163
S'17.4969'
p164
aS'78.3911'
p165
aa(lp166
S'17.4969'
p167
aS'78.3911'
p168
aa(lp169
S'17.4969'
p170
aS'78.3911'
p171
aa(lp172
S'17.4969'
p173
aS'78.3911'
p174
aa(lp175
S'17.4969'
p176
aS'78.3911'
p177
aa(lp178
S'17.4969'
p179
aS'78.3911'
p180
aa(lp181
S'17.4969'
p182
aS'78.3911'
p183
aa(lp184
S'17.4969'
p185
aS'78.3911'
p186
aa(lp187
S'17.4969'
p188
aS'78.3911'
p189
aa(lp190
S'17.4969'
p191
aS'78.3911'
p192
aa(lp193
S'17.4969'
p194
aS'78.3910'
p195
aa(lp196
S'17.4969'
p197
aS'78.3910'
p198
aa(lp199
S'17.4969'
p200
aS'78.3910'
p201
aa(lp202
S'17.4969'
p203
aS'78.3910'
p204
aa(lp205
S'17.4969'
p206
aS'78.3910'
p207
aa(lp208
S'17.4969'
p209
aS'78.3910'
p210
aa(lp211
S'17.4969'
p212
aS'78.3910'
p213
aa(lp214
S'17.4969'
p215
aS'78.3910'
p216
aa(lp217
S'17.4969'
p218
aS'78.3910'
p219
aa(lp220
S'17.4969'
p221
aS'78.3910'
p222
aa(lp223
S'17.4969'
p224
aS'78.3910'
p225
aa(lp226
S'17.4969'
p227
aS'78.3909'
p228
aa(lp229
S'17.4969'
p230
aS'78.3909'
p231
aa(lp232
S'17.4969'
p233
aS'78.3909'
p234
aa(lp235
S'17.4969'
p236
aS'78.3909'
p237
aa(lp238
S'17.4969'
p239
aS'78.3909'
p240
aa(lp241
S'17.4969'
p242
aS'78.3909'
p243
aa(lp244
S'17.4969'
p245
aS'78.3909'
p246
aa(lp247
S'17.4969'
p248
aS'78.3909'
p249
aa(lp250
S'17.4969'
p251
aS'78.3909'
p252
aa(lp253
S'17.4969'
p254
aS'78.3909'
p255
aa(lp256
S'17.4969'
p257
aS'78.3909'
p258
aa(lp259
S'17.4969'
p260
aS'78.3908'
p261
aa(lp262
S'17.4969'
p263
aS'78.3908'
p264
aa(lp265
S'17.4969'
p266
aS'78.3908'
p267
aa(lp268
S'17.4969'
p269
aS'78.3908'
p270
aa(lp271
S'17.4969'
p272
aS'78.3908'
p273
aa(lp274
S'17.4969'
p275
aS'78.3908'
p276
aa(lp277
S'17.4969'
p278
aS'78.3908'
p279
aa(lp280
S'17.4969'
p281
aS'78.3908'
p282
aa(lp283
S'17.4969'
p284
aS'78.3908'
p285
aa(lp286
S'17.4969'
p287
aS'78.3908'
p288
aa(lp289
S'17.4969'
p290
aS'78.3907'
p291
aa(lp292
S'17.4969'
p293
aS'78.3907'
p294
aa(lp295
S'17.4969'
p296
aS'78.3907'
p297
aa(lp298
S'17.4969'
p299
aS'78.3907'
p300
aa(lp301
S'17.4969'
p302
aS'78.3907'
p303
aa(lp304
S'17.4969'
p305
aS'78.3907'
p306
aa(lp307
S'17.4969'
p308
aS'78.3907'
p309
aa(lp310
S'17.4969'
p311
aS'78.3907'
p312
aa(lp313
S'17.4969'
p314
aS'78.3907'
p315
aa(lp316
S'17.4969'
p317
aS'78.3907'
p318
aa(lp319
S'17.4969'
p320
aS'78.3907'
p321
aa(lp322
S'17.4969'
p323
aS'78.3906'
p324
aa(lp325
S'17.4969'
p326
aS'78.3906'
p327
aa(lp328
S'17.4969'
p329
aS'78.3906'
p330
aa(lp331
S'17.4969'
p332
aS'78.3906'
p333
aa(lp334
S'17.4969'
p335
aS'78.3906'
p336
aa(lp337
S'17.4969'
p338
aS'78.3906'
p339
aa(lp340
S'17.4969'
p341
aS'78.3906'
p342
aa(lp343
S'17.4969'
p344
aS'78.3906'
p345
aa(lp346
S'17.4969'
p347
aS'78.3906'
p348
aa(lp349
S'17.4969'
p350
aS'78.3906'
p351
aa(lp352
S'17.4969'
p353
aS'78.3906'
p354
aa(lp355
S'17.4969'
p356
aS'78.3905'
p357
aa(lp358
S'17.4969'
p359
aS'78.3905'
p360
aa(lp361
S'17.4969'
p362
aS'78.3905'
p363
aa(lp364
S'17.4969'
p365
aS'78.3905'
p366
aa(lp367
S'17.4969'
p368
aS'78.3905'
p369
aa(lp370
S'17.4969'
p371
aS'78.3905'
p372
aa(lp373
S'17.4969'
p374
aS'78.3905'
p375
aa(lp376
S'17.4969'
p377
aS'78.3905'
p378
aa(lp379
S'17.4969'
p380
aS'78.3905'
p381
aa(lp382
S'17.4969'
p383
aS'78.3905'
p384
aa(lp385
S'17.4969'
p386
aS'78.3904'
p387
aa(lp388
S'17.4969'
p389
aS'78.3904'
p390
aa(lp391
S'17.4969'
p392
aS'78.3904'
p393
aa(lp394
S'17.4969'
p395
aS'78.3904'
p396
aa(lp397
S'17.4969'
p398
aS'78.3904'
p399
aa(lp400
S'17.4969'
p401
aS'78.3904'
p402
aa(lp403
S'17.4969'
p404
aS'78.3904'
p405
aa(lp406
S'17.4969'
p407
aS'78.3904'
p408
aa(lp409
S'17.4969'
p410
aS'78.3904'
p411
aa(lp412
S'17.4968'
p413
aS'78.3904'
p414
aa(lp415
S'17.4968'
p416
aS'78.3904'
p417
aa(lp418
S'17.4968'
p419
aS'78.3903'
p420
aa(lp421
S'17.4968'
p422
aS'78.3903'
p423
aa(lp424
S'17.4968'
p425
aS'78.3903'
p426
aa(lp427
S'17.4968'
p428
aS'78.3903'
p429
aa(lp430
S'17.4968'
p431
aS'78.3903'
p432
aa(lp433
S'17.4968'
p434
aS'78.3903'
p435
aa(lp436
S'17.4968'
p437
aS'78.3903'
p438
aa(lp439
S'17.4968'
p440
aS'78.3903'
p441
aa(lp442
S'17.4968'
p443
aS'78.3903'
p444
aa(lp445
S'17.4968'
p446
aS'78.3903'
p447
aa(lp448
S'17.4968'
p449
aS'78.3902'
p450
aa(lp451
S'17.4968'
p452
aS'78.3902'
p453
aa(lp454
S'17.4968'
p455
aS'78.3902'
p456
aa(lp457
S'17.4968'
p458
aS'78.3902'
p459
aa(lp460
S'17.4968'
p461
aS'78.3902'
p462
aa(lp463
S'17.4968'
p464
aS'78.3902'
p465
aa(lp466
S'17.4968'
p467
aS'78.3902'
p468
aa(lp469
S'17.4968'
p470
aS'78.3902'
p471
aa(lp472
S'17.4968'
p473
aS'78.3902'
p474
aa(lp475
S'17.4968'
p476
aS'78.3902'
p477
aa(lp478
S'17.4968'
p479
aS'78.3902'
p480
aa(lp481
S'17.4968'
p482
aS'78.3901'
p483
aa(lp484
S'17.4968'
p485
aS'78.3901'
p486
aa(lp487
S'17.4968'
p488
aS'78.3901'
p489
aa(lp490
S'17.4968'
p491
aS'78.3901'
p492
aa(lp493
S'17.4968'
p494
aS'78.3901'
p495
aa(lp496
S'17.4968'
p497
aS'78.3901'
p498
aa(lp499
S'17.4968'
p500
aS'78.3901'
p501
aa(lp502
S'17.4968'
p503
aS'78.3901'
p504
aa(lp505
S'17.4968'
p506
aS'78.3901'
p507
aa(lp508
S'17.4968'
p509
aS'78.3901'
p510
aa(lp511
S'17.4968'
p512
aS'78.3901'
p513
aa(lp514
S'17.4968'
p515
aS'78.3900'
p516
aa(lp517
S'17.4968'
p518
aS'78.3900'
p519
aa(lp520
S'17.4968'
p521
aS'78.3900'
p522
aa(lp523
S'17.4968'
p524
aS'78.3900'
p525
aa(lp526
S'17.4968'
p527
aS'78.3900'
p528
aa(lp529
S'17.4968'
p530
aS'78.3900'
p531
aa(lp532
S'17.4968'
p533
aS'78.3900'
p534
aa(lp535
S'17.4968'
p536
aS'78.3900'
p537
aa(lp538
S'17.4968'
p539
aS'78.3900'
p540
aa(lp541
S'17.4968'
p542
aS'78.3900'
p543
aa(lp544
S'17.4968'
p545
aS'78.3899'
p546
aa(lp547
S'17.4968'
p548
aS'78.3899'
p549
aa(lp550
S'17.4968'
p551
aS'78.3899'
p552
aa(lp553
S'17.4968'
p554
aS'78.3899'
p555
aa(lp556
S'17.4968'
p557
aS'78.3899'
p558
aa(lp559
S'17.4968'
p560
aS'78.3899'
p561
aa(lp562
S'17.4968'
p563
aS'78.3899'
p564
aa(lp565
S'17.4968'
p566
aS'78.3899'
p567
aa(lp568
S'17.4968'
p569
aS'78.3899'
p570
aa(lp571
S'17.4968'
p572
aS'78.3899'
p573
aa(lp574
S'17.4968'
p575
aS'78.3899'
p576
aa(lp577
S'17.4968'
p578
aS'78.3898'
p579
aa(lp580
S'17.4968'
p581
aS'78.3898'
p582
aa(lp583
S'17.4968'
p584
aS'78.3898'
p585
aa(lp586
S'17.4968'
p587
aS'78.3898'
p588
aa(lp589
S'17.4968'
p590
aS'78.3898'
p591
aa(lp592
S'17.4968'
p593
aS'78.3898'
p594
aa(lp595
S'17.4968'
p596
aS'78.3898'
p597
aa(lp598
S'17.4968'
p599
aS'78.3898'
p600
aa(lp601
S'17.4968'
p602
aS'78.3898'
p603
aa(lp604
S'17.4968'
p605
aS'78.3898'
p606
aa(lp607
S'17.4968'
p608
aS'78.3897'
p609
aa(lp610
S'17.4968'
p611
aS'78.3897'
p612
aa(lp613
S'17.4968'
p614
aS'78.3897'
p615
aa(lp616
S'17.4968'
p617
aS'78.3897'
p618
aa(lp619
S'17.4968'
p620
aS'78.3897'
p621
aa(lp622
S'17.4968'
p623
aS'78.3897'
p624
aa(lp625
S'17.4968'
p626
aS'78.3897'
p627
aa(lp628
S'17.4968'
p629
aS'78.3897'
p630
aa(lp631
S'17.4968'
p632
aS'78.3897'
p633
aa(lp634
S'17.4968'
p635
aS'78.3897'
p636
aa(lp637
S'17.4968'
p638
aS'78.3897'
p639
aa(lp640
S'17.4968'
p641
aS'78.3896'
p642
aa(lp643
S'17.4968'
p644
aS'78.3896'
p645
aa(lp646
S'17.4968'
p647
aS'78.3896'
p648
aa(lp649
S'17.4968'
p650
aS'78.3896'
p651
aa(lp652
S'17.4968'
p653
aS'78.3896'
p654
aa(lp655
S'17.4968'
p656
aS'78.3896'
p657
aa(lp658
S'17.4968'
p659
aS'78.3896'
p660
aa(lp661
S'17.4968'
p662
aS'78.3896'
p663
aa(lp664
S'17.4968'
p665
aS'78.3896'
p666
aa(lp667
S'17.4968'
p668
aS'78.3896'
p669
aa(lp670
S'17.4968'
p671
aS'78.3896'
p672
aa(lp673
S'17.4968'
p674
aS'78.3895'
p675
aa(lp676
S'17.4968'
p677
aS'78.3895'
p678
aa(lp679
S'17.4968'
p680
aS'78.3895'
p681
aa(lp682
S'17.4968'
p683
aS'78.3895'
p684
aa(lp685
S'17.4968'
p686
aS'78.3895'
p687
aa(lp688
S'17.4968'
p689
aS'78.3895'
p690
aa(lp691
S'17.4968'
p692
aS'78.3895'
p693
aa(lp694
S'17.4968'
p695
aS'78.3895'
p696
aa(lp697
S'17.4968'
p698
aS'78.3895'
p699
aa(lp700
S'17.4968'
p701
aS'78.3895'
p702
aa(lp703
S'17.4968'
p704
aS'78.3894'
p705
aa(lp706
S'17.4968'
p707
aS'78.3894'
p708
aa(lp709
S'17.4968'
p710
aS'78.3894'
p711
aa(lp712
S'17.4968'
p713
aS'78.3894'
p714
aa(lp715
S'17.4968'
p716
aS'78.3894'
p717
aa(lp718
S'17.4968'
p719
aS'78.3894'
p720
aa(lp721
S'17.4968'
p722
aS'78.3894'
p723
aa(lp724
S'17.4968'
p725
aS'78.3894'
p726
aa(lp727
S'17.4968'
p728
aS'78.3894'
p729
aa(lp730
S'17.4968'
p731
aS'78.3894'
p732
aa(lp733
S'17.4968'
p734
aS'78.3894'
p735
aa(lp736
S'17.4968'
p737
aS'78.3893'
p738
aa(lp739
S'17.4968'
p740
aS'78.3893'
p741
aa(lp742
S'17.4968'
p743
aS'78.3893'
p744
aa(lp745
S'17.4968'
p746
aS'78.3893'
p747
aa(lp748
S'17.4968'
p749
aS'78.3893'
p750
aa(lp751
S'17.4968'
p752
aS'78.3893'
p753
aa(lp754
S'17.4968'
p755
aS'78.3893'
p756
aa(lp757
S'17.4968'
p758
aS'78.3893'
p759
aa(lp760
S'17.4968'
p761
aS'78.3893'
p762
aa(lp763
S'17.4968'
p764
aS'78.3893'
p765
aa(lp766
S'17.4968'
p767
aS'78.3893'
p768
aa(lp769
S'17.4968'
p770
aS'78.3892'
p771
aa(lp772
S'17.4968'
p773
aS'78.3892'
p774
aa(lp775
S'17.4968'
p776
aS'78.3892'
p777
aa(lp778
S'17.4968'
p779
aS'78.3892'
p780
aa(lp781
S'17.4968'
p782
aS'78.3892'
p783
aa(lp784
S'17.4968'
p785
aS'78.3892'
p786
aa(lp787
S'17.4968'
p788
aS'78.3892'
p789
aa(lp790
S'17.4968'
p791
aS'78.3892'
p792
aa(lp793
S'17.4968'
p794
aS'78.3892'
p795
aa(lp796
S'17.4968'
p797
aS'78.3892'
p798
aa(lp799
S'17.4968'
p800
aS'78.3891'
p801
aa(lp802
S'17.4968'
p803
aS'78.3891'
p804
aa(lp805
S'17.4968'
p806
aS'78.3891'
p807
aa(lp808
S'17.4968'
p809
aS'78.3891'
p810
aa(lp811
S'17.4968'
p812
aS'78.3891'
p813
aa(lp814
S'17.4968'
p815
aS'78.3891'
p816
aa(lp817
S'17.4968'
p818
aS'78.3891'
p819
aa(lp820
S'17.4968'
p821
aS'78.3891'
p822
aa(lp823
S'17.4968'
p824
aS'78.3891'
p825
aa(lp826
S'17.4968'
p827
aS'78.3891'
p828
aa(lp829
S'17.4968'
p830
aS'78.3891'
p831
aa(lp832
S'17.4968'
p833
aS'78.3890'
p834
aa(lp835
S'17.4968'
p836
aS'78.3890'
p837
aa(lp838
S'17.4968'
p839
aS'78.3890'
p840
aa(lp841
S'17.4968'
p842
aS'78.3890'
p843
aa(lp844
S'17.4968'
p845
aS'78.3890'
p846
aa(lp847
S'17.4968'
p848
aS'78.3890'
p849
aa(lp850
S'17.4968'
p851
aS'78.3890'
p852
aa(lp853
S'17.4968'
p854
aS'78.3890'
p855
aa(lp856
S'17.4968'
p857
aS'78.3890'
p858
aa(lp859
S'17.4968'
p860
aS'78.3890'
p861
aa(lp862
S'17.4968'
p863
aS'78.3889'
p864
aa(lp865
S'17.4968'
p866
aS'78.3889'
p867
aa(lp868
S'17.4968'
p869
aS'78.3889'
p870
aa(lp871
S'17.4968'
p872
aS'78.3889'
p873
aa(lp874
S'17.4968'
p875
aS'78.3889'
p876
aa(lp877
S'17.4968'
p878
aS'78.3889'
p879
aa(lp880
S'17.4968'
p881
aS'78.3889'
p882
aa(lp883
S'17.4968'
p884
aS'78.3889'
p885
aa(lp886
S'17.4968'
p887
aS'78.3889'
p888
aa(lp889
S'17.4968'
p890
aS'78.3889'
p891
aa(lp892
S'17.4968'
p893
aS'78.3889'
p894
aa(lp895
S'17.4968'
p896
aS'78.3888'
p897
aa(lp898
S'17.4968'
p899
aS'78.3888'
p900
aa(lp901
S'17.4968'
p902
aS'78.3888'
p903
aa(lp904
S'17.4968'
p905
aS'78.3888'
p906
aa(lp907
S'17.4968'
p908
aS'78.3888'
p909
aa(lp910
S'17.4968'
p911
aS'78.3888'
p912
aa(lp913
S'17.4968'
p914
aS'78.3888'
p915
aa(lp916
S'17.4968'
p917
aS'78.3888'
p918
aa(lp919
S'17.4968'
p920
aS'78.3888'
p921
aa(lp922
S'17.4968'
p923
aS'78.3888'
p924
aa(lp925
S'17.4968'
p926
aS'78.3888'
p927
aa(lp928
S'17.4968'
p929
aS'78.3887'
p930
aa(lp931
S'17.4968'
p932
aS'78.3887'
p933
aa(lp934
S'17.4968'
p935
aS'78.3887'
p936
aa(lp937
S'17.4968'
p938
aS'78.3887'
p939
aa(lp940
S'17.4968'
p941
aS'78.3887'
p942
aa(lp943
S'17.4968'
p944
aS'78.3887'
p945
aa(lp946
S'17.4968'
p947
aS'78.3887'
p948
aa(lp949
S'17.4968'
p950
aS'78.3887'
p951
aa(lp952
S'17.4968'
p953
aS'78.3887'
p954
aa(lp955
S'17.4968'
p956
aS'78.3887'
p957
aa(lp958
S'17.4968'
p959
aS'78.3886'
p960
aa(lp961
S'17.4968'
p962
aS'78.3886'
p963
aa(lp964
S'17.4968'
p965
aS'78.3886'
p966
aa(lp967
S'17.4968'
p968
aS'78.3886'
p969
aa(lp970
S'17.4968'
p971
aS'78.3886'
p972
aa(lp973
S'17.4968'
p974
aS'78.3886'
p975
aa(lp976
S'17.4968'
p977
aS'78.3886'
p978
aa(lp979
S'17.4968'
p980
aS'78.3886'
p981
aa(lp982
S'17.4968'
p983
aS'78.3886'
p984
aa(lp985
S'17.4968'
p986
aS'78.3886'
p987
aa(lp988
S'17.4968'
p989
aS'78.3886'
p990
aa(lp991
S'17.4968'
p992
aS'78.3885'
p993
aa(lp994
S'17.4968'
p995
aS'78.3885'
p996
aa(lp997
S'17.4968'
p998
aS'78.3885'
p999
aa(lp1000
S'17.4968'
p1001
aS'78.3885'
p1002
aa(lp1003
S'17.4968'
p1004
aS'78.3885'
p1005
aa(lp1006
S'17.4968'
p1007
aS'78.3885'
p1008
aa(lp1009
S'17.4968'
p1010
aS'78.3885'
p1011
aa(lp1012
S'17.4968'
p1013
aS'78.3885'
p1014
aa(lp1015
S'17.4968'
p1016
aS'78.3885'
p1017
aa(lp1018
S'17.4968'
p1019
aS'78.3885'
p1020
aa(lp1021
S'17.4968'
p1022
aS'78.3885'
p1023
aa(lp1024
S'17.4968'
p1025
aS'78.3884'
p1026
aa(lp1027
S'17.4968'
p1028
aS'78.3884'
p1029
aa(lp1030
S'17.4968'
p1031
aS'78.3884'
p1032
aa(lp1033
S'17.4968'
p1034
aS'78.3884'
p1035
aa(lp1036
S'17.4968'
p1037
aS'78.3884'
p1038
aa(lp1039
S'17.4968'
p1040
aS'78.3884'
p1041
aa(lp1042
S'17.4968'
p1043
aS'78.3884'
p1044
aa(lp1045
S'17.4968'
p1046
aS'78.3884'
p1047
aa(lp1048
S'17.4968'
p1049
aS'78.3884'
p1050
aa(lp1051
S'17.4968'
p1052
aS'78.3884'
p1053
aa(lp1054
S'17.4968'
p1055
aS'78.3883'
p1056
aa(lp1057
S'17.4968'
p1058
aS'78.3883'
p1059
aa(lp1060
S'17.4968'
p1061
aS'78.3883'
p1062
aa(lp1063
S'17.4968'
p1064
aS'78.3883'
p1065
aa(lp1066
S'17.4968'
p1067
aS'78.3883'
p1068
aa(lp1069
S'17.4968'
p1070
aS'78.3883'
p1071
aa(lp1072
S'17.4968'
p1073
aS'78.3883'
p1074
aa(lp1075
S'17.4968'
p1076
aS'78.3883'
p1077
aa(lp1078
S'17.4968'
p1079
aS'78.3883'
p1080
aa(lp1081
S'17.4968'
p1082
aS'78.3883'
p1083
aa(lp1084
S'17.4968'
p1085
aS'78.3883'
p1086
aa(lp1087
S'17.4968'
p1088
aS'78.3882'
p1089
aa(lp1090
S'17.4968'
p1091
aS'78.3882'
p1092
aa(lp1093
S'17.4968'
p1094
aS'78.3882'
p1095
aa(lp1096
S'17.4968'
p1097
aS'78.3882'
p1098
aa(lp1099
S'17.4968'
p1100
aS'78.3882'
p1101
aa(lp1102
S'17.4968'
p1103
aS'78.3882'
p1104
aa(lp1105
S'17.4968'
p1106
aS'78.3882'
p1107
aa(lp1108
S'17.4968'
p1109
aS'78.3882'
p1110
aa(lp1111
S'17.4968'
p1112
aS'78.3882'
p1113
aa(lp1114
S'17.4968'
p1115
aS'78.3882'
p1116
aa(lp1117
S'17.4968'
p1118
aS'78.3881'
p1119
aa(lp1120
S'17.4968'
p1121
aS'78.3881'
p1122
aa(lp1123
S'17.4968'
p1124
aS'78.3881'
p1125
aa(lp1126
S'17.4968'
p1127
aS'78.3881'
p1128
aa(lp1129
S'17.4968'
p1130
aS'78.3881'
p1131
aa(lp1132
S'17.4968'
p1133
aS'78.3881'
p1134
aa(lp1135
S'17.4968'
p1136
aS'78.3881'
p1137
aa(lp1138
S'17.4968'
p1139
aS'78.3881'
p1140
aa(lp1141
S'17.4968'
p1142
aS'78.3881'
p1143
aa(lp1144
S'17.4968'
p1145
aS'78.3881'
p1146
aa(lp1147
S'17.4968'
p1148
aS'78.3881'
p1149
aa(lp1150
S'17.4968'
p1151
aS'78.3880'
p1152
aa(lp1153
S'17.4968'
p1154
aS'78.3880'
p1155
aa(lp1156
S'17.4968'
p1157
aS'78.3880'
p1158
aa(lp1159
S'17.4968'
p1160
aS'78.3880'
p1161
aa(lp1162
S'17.4968'
p1163
aS'78.3880'
p1164
aa(lp1165
S'17.4968'
p1166
aS'78.3880'
p1167
aa(lp1168
S'17.4968'
p1169
aS'78.3880'
p1170
aa(lp1171
S'17.4968'
p1172
aS'78.3880'
p1173
aa(lp1174
S'17.4968'
p1175
aS'78.3880'
p1176
aa(lp1177
S'17.4968'
p1178
aS'78.3880'
p1179
aa(lp1180
S'17.4968'
p1181
aS'78.3880'
p1182
aa(lp1183
S'17.4968'
p1184
aS'78.3879'
p1185
aa(lp1186
S'17.4968'
p1187
aS'78.3879'
p1188
aa(lp1189
S'17.4968'
p1190
aS'78.3879'
p1191
aa(lp1192
S'17.4968'
p1193
aS'78.3879'
p1194
aa(lp1195
S'17.4968'
p1196
aS'78.3879'
p1197
aa(lp1198
S'17.4968'
p1199
aS'78.3879'
p1200
aa(lp1201
S'17.4968'
p1202
aS'78.3879'
p1203
aa(lp1204
S'17.4968'
p1205
aS'78.3879'
p1206
aa(lp1207
S'17.4968'
p1208
aS'78.3879'
p1209
aa(lp1210
S'17.4968'
p1211
aS'78.3879'
p1212
aa(lp1213
S'17.4968'
p1214
aS'78.3878'
p1215
aa(lp1216
S'17.4968'
p1217
aS'78.3878'
p1218
aa(lp1219
S'17.4968'
p1220
aS'78.3878'
p1221
aa(lp1222
S'17.4968'
p1223
aS'78.3878'
p1224
aa(lp1225
S'17.4968'
p1226
aS'78.3878'
p1227
aa(lp1228
S'17.4968'
p1229
aS'78.3878'
p1230
aa(lp1231
S'17.4968'
p1232
aS'78.3878'
p1233
aa(lp1234
S'17.4968'
p1235
aS'78.3878'
p1236
aa(lp1237
S'17.4968'
p1238
aS'78.3878'
p1239
aa(lp1240
S'17.4968'
p1241
aS'78.3878'
p1242
aa(lp1243
S'17.4968'
p1244
aS'78.3878'
p1245
aa(lp1246
S'17.4968'
p1247
aS'78.3877'
p1248
aa(lp1249
S'17.4968'
p1250
aS'78.3877'
p1251
aa(lp1252
S'17.4968'
p1253
aS'78.3877'
p1254
aa(lp1255
S'17.4968'
p1256
aS'78.3877'
p1257
aa(lp1258
S'17.4968'
p1259
aS'78.3877'
p1260
aa(lp1261
S'17.4968'
p1262
aS'78.3877'
p1263
aa(lp1264
S'17.4968'
p1265
aS'78.3877'
p1266
aa(lp1267
S'17.4968'
p1268
aS'78.3877'
p1269
aa(lp1270
S'17.4968'
p1271
aS'78.3877'
p1272
aa(lp1273
S'17.4968'
p1274
aS'78.3877'
p1275
aa(lp1276
S'17.4968'
p1277
aS'78.3876'
p1278
aa(lp1279
S'17.4968'
p1280
aS'78.3876'
p1281
aa(lp1282
S'17.4968'
p1283
aS'78.3876'
p1284
aa(lp1285
S'17.4968'
p1286
aS'78.3876'
p1287
aa(lp1288
S'17.4968'
p1289
aS'78.3876'
p1290
aa(lp1291
S'17.4968'
p1292
aS'78.3876'
p1293
aa(lp1294
S'17.4968'
p1295
aS'78.3876'
p1296
aa(lp1297
S'17.4968'
p1298
aS'78.3876'
p1299
aa(lp1300
S'17.4968'
p1301
aS'78.3876'
p1302
aa(lp1303
S'17.4968'
p1304
aS'78.3876'
p1305
aa(lp1306
S'17.4968'
p1307
aS'78.3876'
p1308
aa(lp1309
S'17.4968'
p1310
aS'78.3875'
p1311
aa(lp1312
S'17.4968'
p1313
aS'78.3875'
p1314
aa(lp1315
S'17.4968'
p1316
aS'78.3875'
p1317
aa(lp1318
S'17.4968'
p1319
aS'78.3875'
p1320
aa(lp1321
S'17.4968'
p1322
aS'78.3875'
p1323
aa(lp1324
S'17.4968'
p1325
aS'78.3875'
p1326
aa(lp1327
S'17.4968'
p1328
aS'78.3875'
p1329
aa(lp1330
S'17.4968'
p1331
aS'78.3875'
p1332
aa(lp1333
S'17.4968'
p1334
aS'78.3875'
p1335
aa(lp1336
S'17.4968'
p1337
aS'78.3875'
p1338
aa(lp1339
S'17.4968'
p1340
aS'78.3875'
p1341
aa(lp1342
S'17.4968'
p1343
aS'78.3874'
p1344
aa(lp1345
S'17.4968'
p1346
aS'78.3874'
p1347
aa(lp1348
S'17.4968'
p1349
aS'78.3874'
p1350
aa(lp1351
S'17.4968'
p1352
aS'78.3874'
p1353
aa(lp1354
S'17.4968'
p1355
aS'78.3874'
p1356
aa(lp1357
S'17.4968'
p1358
aS'78.3874'
p1359
aa(lp1360
S'17.4968'
p1361
aS'78.3874'
p1362
aa(lp1363
S'17.4968'
p1364
aS'78.3874'
p1365
aa(lp1366
S'17.4968'
p1367
aS'78.3874'
p1368
aa(lp1369
S'17.4968'
p1370
aS'78.3874'
p1371
aa(lp1372
S'17.4968'
p1373
aS'78.3873'
p1374
aa(lp1375
S'17.4968'
p1376
aS'78.3873'
p1377
aa(lp1378
S'17.4968'
p1379
aS'78.3873'
p1380
aa(lp1381
S'17.4968'
p1382
aS'78.3873'
p1383
aa(lp1384
S'17.4968'
p1385
aS'78.3873'
p1386
aa(lp1387
S'17.4968'
p1388
aS'78.3873'
p1389
aa(lp1390
S'17.4968'
p1391
aS'78.3873'
p1392
aa(lp1393
S'17.4968'
p1394
aS'78.3873'
p1395
aa(lp1396
S'17.4968'
p1397
aS'78.3873'
p1398
aa(lp1399
S'17.4968'
p1400
aS'78.3873'
p1401
aa(lp1402
S'17.4968'
p1403
aS'78.3873'
p1404
aa(lp1405
S'17.4968'
p1406
aS'78.3872'
p1407
aa(lp1408
S'17.4968'
p1409
aS'78.3872'
p1410
aa(lp1411
S'17.4968'
p1412
aS'78.3872'
p1413
aa(lp1414
S'17.4968'
p1415
aS'78.3872'
p1416
aa(lp1417
S'17.4968'
p1418
aS'78.3872'
p1419
aa(lp1420
S'17.4968'
p1421
aS'78.3872'
p1422
aa(lp1423
S'17.4968'
p1424
aS'78.3872'
p1425
aa(lp1426
S'17.4968'
p1427
aS'78.3872'
p1428
aa(lp1429
S'17.4968'
p1430
aS'78.3872'
p1431
aa(lp1432
S'17.4968'
p1433
aS'78.3872'
p1434
aa(lp1435
S'17.4968'
p1436
aS'78.3872'
p1437
aa(lp1438
S'17.4968'
p1439
aS'78.3871'
p1440
aa(lp1441
S'17.4968'
p1442
aS'78.3871'
p1443
aa(lp1444
S'17.4968'
p1445
aS'78.3871'
p1446
aa(lp1447
S'17.4968'
p1448
aS'78.3871'
p1449
aa(lp1450
S'17.4968'
p1451
aS'78.3871'
p1452
aa(lp1453
S'17.4968'
p1454
aS'78.3871'
p1455
aa(lp1456
S'17.4968'
p1457
aS'78.3871'
p1458
aa(lp1459
S'17.4968'
p1460
aS'78.3871'
p1461
aa(lp1462
S'17.4968'
p1463
aS'78.3871'
p1464
aa(lp1465
S'17.4968'
p1466
aS'78.3871'
p1467
aa(lp1468
S'17.4968'
p1469
aS'78.3870'
p1470
aa(lp1471
S'17.4968'
p1472
aS'78.3870'
p1473
aa(lp1474
S'17.4968'
p1475
aS'78.3870'
p1476
aa(lp1477
S'17.4968'
p1478
aS'78.3870'
p1479
aa(lp1480
S'17.4968'
p1481
aS'78.3870'
p1482
aa(lp1483
S'17.4968'
p1484
aS'78.3870'
p1485
aa(lp1486
S'17.4968'
p1487
aS'78.3870'
p1488
aa(lp1489
S'17.4968'
p1490
aS'78.3870'
p1491
aa(lp1492
S'17.4968'
p1493
aS'78.3870'
p1494
aa(lp1495
S'17.4968'
p1496
aS'78.3870'
p1497
aa(lp1498
S'17.4968'
p1499
aS'78.3870'
p1500
aa(lp1501
S'17.4968'
p1502
aS'78.3869'
p1503
aa(lp1504
S'17.4968'
p1505
aS'78.3869'
p1506
aa(lp1507
S'17.4968'
p1508
aS'78.3869'
p1509
aa(lp1510
S'17.4968'
p1511
aS'78.3869'
p1512
aa(lp1513
S'17.4968'
p1514
aS'78.3869'
p1515
aa(lp1516
S'17.4968'
p1517
aS'78.3869'
p1518
aa(lp1519
S'17.4968'
p1520
aS'78.3869'
p1521
aa(lp1522
S'17.4968'
p1523
aS'78.3869'
p1524
aa(lp1525
S'17.4968'
p1526
aS'78.3869'
p1527
aa(lp1528
S'17.4968'
p1529
aS'78.3869'
p1530
aa(lp1531
S'17.4968'
p1532
aS'78.3868'
p1533
aa(lp1534
S'17.4968'
p1535
aS'78.3868'
p1536
aa(lp1537
S'17.4968'
p1538
aS'78.3868'
p1539
aa(lp1540
S'17.4968'
p1541
aS'78.3868'
p1542
aa(lp1543
S'17.4968'
p1544
aS'78.3868'
p1545
aa(lp1546
S'17.4968'
p1547
aS'78.3868'
p1548
aa(lp1549
S'17.4968'
p1550
aS'78.3868'
p1551
aa(lp1552
S'17.4968'
p1553
aS'78.3868'
p1554
aa(lp1555
S'17.4968'
p1556
aS'78.3868'
p1557
aa(lp1558
S'17.4968'
p1559
aS'78.3868'
p1560
aa(lp1561
S'17.4968'
p1562
aS'78.3868'
p1563
aa(lp1564
S'17.4968'
p1565
aS'78.3867'
p1566
aa(lp1567
S'17.4968'
p1568
aS'78.3867'
p1569
aa(lp1570
S'17.4968'
p1571
aS'78.3867'
p1572
aa(lp1573
S'17.4968'
p1574
aS'78.3867'
p1575
aa(lp1576
S'17.4968'
p1577
aS'78.3867'
p1578
aa(lp1579
S'17.4968'
p1580
aS'78.3867'
p1581
aa(lp1582
S'17.4968'
p1583
aS'78.3867'
p1584
aa(lp1585
S'17.4968'
p1586
aS'78.3867'
p1587
aa(lp1588
S'17.4968'
p1589
aS'78.3867'
p1590
aa(lp1591
S'17.4968'
p1592
aS'78.3867'
p1593
aa(lp1594
S'17.4968'
p1595
aS'78.3867'
p1596
aa(lp1597
S'17.4968'
p1598
aS'78.3866'
p1599
aa(lp1600
S'17.4968'
p1601
aS'78.3866'
p1602
aa(lp1603
S'17.4968'
p1604
aS'78.3866'
p1605
aa(lp1606
S'17.4968'
p1607
aS'78.3866'
p1608
aa(lp1609
S'17.4968'
p1610
aS'78.3866'
p1611
aa(lp1612
S'17.4968'
p1613
aS'78.3866'
p1614
aa(lp1615
S'17.4968'
p1616
aS'78.3866'
p1617
aa(lp1618
S'17.4968'
p1619
aS'78.3866'
p1620
aa(lp1621
S'17.4968'
p1622
aS'78.3866'
p1623
aa(lp1624
S'17.4968'
p1625
aS'78.3866'
p1626
aa(lp1627
S'17.4968'
p1628
aS'78.3865'
p1629
aa(lp1630
S'17.4968'
p1631
aS'78.3865'
p1632
aa(lp1633
S'17.4968'
p1634
aS'78.3865'
p1635
aa(lp1636
S'17.4968'
p1637
aS'78.3865'
p1638
aa(lp1639
S'17.4968'
p1640
aS'78.3865'
p1641
aa(lp1642
S'17.4968'
p1643
aS'78.3865'
p1644
aa(lp1645
S'17.4968'
p1646
aS'78.3865'
p1647
aa(lp1648
S'17.4968'
p1649
aS'78.3865'
p1650
aa(lp1651
S'17.4968'
p1652
aS'78.3865'
p1653
aa(lp1654
S'17.4968'
p1655
aS'78.3865'
p1656
aa(lp1657
S'17.4968'
p1658
aS'78.3865'
p1659
aa(lp1660
S'17.4968'
p1661
aS'78.3864'
p1662
aa(lp1663
S'17.4968'
p1664
aS'78.3864'
p1665
aa(lp1666
S'17.4968'
p1667
aS'78.3864'
p1668
aa(lp1669
S'17.4968'
p1670
aS'78.3864'
p1671
aa(lp1672
S'17.4968'
p1673
aS'78.3864'
p1674
aa(lp1675
S'17.4968'
p1676
aS'78.3864'
p1677
aa(lp1678
S'17.4968'
p1679
aS'78.3864'
p1680
aa(lp1681
S'17.4968'
p1682
aS'78.3864'
p1683
aa(lp1684
S'17.4968'
p1685
aS'78.3864'
p1686
aa(lp1687
S'17.4968'
p1688
aS'78.3864'
p1689
aa(lp1690
S'17.4968'
p1691
aS'78.3863'
p1692
aa(lp1693
S'17.4968'
p1694
aS'78.3863'
p1695
aa(lp1696
S'17.4968'
p1697
aS'78.3863'
p1698
aa(lp1699
S'17.4968'
p1700
aS'78.3863'
p1701
aa(lp1702
S'17.4968'
p1703
aS'78.3863'
p1704
aa(lp1705
S'17.4968'
p1706
aS'78.3863'
p1707
aa(lp1708
S'17.4968'
p1709
aS'78.3863'
p1710
aa(lp1711
S'17.4968'
p1712
aS'78.3863'
p1713
aa(lp1714
S'17.4968'
p1715
aS'78.3863'
p1716
aa(lp1717
S'17.4968'
p1718
aS'78.3863'
p1719
aa(lp1720
S'17.4968'
p1721
aS'78.3863'
p1722
aa(lp1723
S'17.4968'
p1724
aS'78.3862'
p1725
aa(lp1726
S'17.4968'
p1727
aS'78.3862'
p1728
aa(lp1729
S'17.4968'
p1730
aS'78.3862'
p1731
aa(lp1732
S'17.4968'
p1733
aS'78.3862'
p1734
aa(lp1735
S'17.4968'
p1736
aS'78.3862'
p1737
aa(lp1738
S'17.4968'
p1739
aS'78.3862'
p1740
aa(lp1741
S'17.4968'
p1742
aS'78.3862'
p1743
aa(lp1744
S'17.4968'
p1745
aS'78.3862'
p1746
aa(lp1747
S'17.4968'
p1748
aS'78.3862'
p1749
aa(lp1750
S'17.4968'
p1751
aS'78.3862'
p1752
aa(lp1753
S'17.4968'
p1754
aS'78.3862'
p1755
aa(lp1756
S'17.4968'
p1757
aS'78.3861'
p1758
aa(lp1759
S'17.4968'
p1760
aS'78.3861'
p1761
aa(lp1762
S'17.4968'
p1763
aS'78.3861'
p1764
aa(lp1765
S'17.4968'
p1766
aS'78.3861'
p1767
aa(lp1768
S'17.4968'
p1769
aS'78.3861'
p1770
aa(lp1771
S'17.4968'
p1772
aS'78.3861'
p1773
aa(lp1774
S'17.4968'
p1775
aS'78.3861'
p1776
aa(lp1777
S'17.4968'
p1778
aS'78.3861'
p1779
aa(lp1780
S'17.4968'
p1781
aS'78.3861'
p1782
aa(lp1783
S'17.4968'
p1784
aS'78.3861'
p1785
aa(lp1786
S'17.4968'
p1787
aS'78.3860'
p1788
aa(lp1789
S'17.4968'
p1790
aS'78.3860'
p1791
aa(lp1792
S'17.4968'
p1793
aS'78.3860'
p1794
aa(lp1795
S'17.4968'
p1796
aS'78.3860'
p1797
aa(lp1798
S'17.4968'
p1799
aS'78.3860'
p1800
aa(lp1801
S'17.4968'
p1802
aS'78.3860'
p1803
aa(lp1804
S'17.4968'
p1805
aS'78.3860'
p1806
aa(lp1807
S'17.4968'
p1808
aS'78.3860'
p1809
aa(lp1810
S'17.4968'
p1811
aS'78.3860'
p1812
aa(lp1813
S'17.4968'
p1814
aS'78.3860'
p1815
aa(lp1816
S'17.4968'
p1817
aS'78.3860'
p1818
aa(lp1819
S'17.4968'
p1820
aS'78.3859'
p1821
aa(lp1822
S'17.4968'
p1823
aS'78.3859'
p1824
aa(lp1825
S'17.4968'
p1826
aS'78.3859'
p1827
aa(lp1828
S'17.4968'
p1829
aS'78.3859'
p1830
aa(lp1831
S'17.4968'
p1832
aS'78.3859'
p1833
aa(lp1834
S'17.4968'
p1835
aS'78.3859'
p1836
aa(lp1837
S'17.4968'
p1838
aS'78.3859'
p1839
aa(lp1840
S'17.4968'
p1841
aS'78.3859'
p1842
aa(lp1843
S'17.4968'
p1844
aS'78.3859'
p1845
aa(lp1846
S'17.4968'
p1847
aS'78.3859'
p1848
aa(lp1849
S'17.4968'
p1850
aS'78.3859'
p1851
aa(lp1852
S'17.4968'
p1853
aS'78.3858'
p1854
aa(lp1855
S'17.4968'
p1856
aS'78.3858'
p1857
aa(lp1858
S'17.4968'
p1859
aS'78.3858'
p1860
aa(lp1861
S'17.4968'
p1862
aS'78.3858'
p1863
aa(lp1864
S'17.4968'
p1865
aS'78.3858'
p1866
aa(lp1867
S'17.4968'
p1868
aS'78.3858'
p1869
aa(lp1870
S'17.4968'
p1871
aS'78.3858'
p1872
aa(lp1873
S'17.4968'
p1874
aS'78.3858'
p1875
aa(lp1876
S'17.4968'
p1877
aS'78.3858'
p1878
aa(lp1879
S'17.4968'
p1880
aS'78.3858'
p1881
aa(lp1882
S'17.4968'
p1883
aS'78.3857'
p1884
aa(lp1885
S'17.4968'
p1886
aS'78.3857'
p1887
aa(lp1888
S'17.4968'
p1889
aS'78.3857'
p1890
aa(lp1891
S'17.4968'
p1892
aS'78.3857'
p1893
aa(lp1894
S'17.4968'
p1895
aS'78.3857'
p1896
aa(lp1897
S'17.4968'
p1898
aS'78.3857'
p1899
aa(lp1900
S'17.4968'
p1901
aS'78.3857'
p1902
aa(lp1903
S'17.4968'
p1904
aS'78.3857'
p1905
aa(lp1906
S'17.4968'
p1907
aS'78.3857'
p1908
aa(lp1909
S'17.4968'
p1910
aS'78.3857'
p1911
aa(lp1912
S'17.4968'
p1913
aS'78.3857'
p1914
aa(lp1915
S'17.4968'
p1916
aS'78.3856'
p1917
aa(lp1918
S'17.4968'
p1919
aS'78.3856'
p1920
aa(lp1921
S'17.4968'
p1922
aS'78.3856'
p1923
aa(lp1924
S'17.4968'
p1925
aS'78.3856'
p1926
aa(lp1927
S'17.4968'
p1928
aS'78.3856'
p1929
aa(lp1930
S'17.4968'
p1931
aS'78.3856'
p1932
aa(lp1933
S'17.4968'
p1934
aS'78.3856'
p1935
aa(lp1936
S'17.4968'
p1937
aS'78.3856'
p1938
aa(lp1939
S'17.4968'
p1940
aS'78.3856'
p1941
aa(lp1942
S'17.4968'
p1943
aS'78.3856'
p1944
aa(lp1945
S'17.4968'
p1946
aS'78.3855'
p1947
aa(lp1948
S'17.4968'
p1949
aS'78.3855'
p1950
aa(lp1951
S'17.4968'
p1952
aS'78.3855'
p1953
aa(lp1954
S'17.4968'
p1955
aS'78.3855'
p1956
aa(lp1957
S'17.4968'
p1958
aS'78.3855'
p1959
aa(lp1960
S'17.4968'
p1961
aS'78.3855'
p1962
aa(lp1963
S'17.4968'
p1964
aS'78.3855'
p1965
aa(lp1966
S'17.4968'
p1967
aS'78.3855'
p1968
aa(lp1969
S'17.4968'
p1970
aS'78.3855'
p1971
aa(lp1972
S'17.4968'
p1973
aS'78.3855'
p1974
aa(lp1975
S'17.4968'
p1976
aS'78.3855'
p1977
aa(lp1978
S'17.4968'
p1979
aS'78.3854'
p1980
aa(lp1981
S'17.4968'
p1982
aS'78.3854'
p1983
aa(lp1984
S'17.4968'
p1985
aS'78.3854'
p1986
aa(lp1987
S'17.4968'
p1988
aS'78.3854'
p1989
aa(lp1990
S'17.4968'
p1991
aS'78.3854'
p1992
aa(lp1993
S'17.4968'
p1994
aS'78.3854'
p1995
aa(lp1996
S'17.4968'
p1997
aS'78.3854'
p1998
aa(lp1999
S'17.4968'
p2000
aS'78.3854'
p2001
aa(lp2002
S'17.4968'
p2003
aS'78.3854'
p2004
aa(lp2005
S'17.4968'
p2006
aS'78.3854'
p2007
aa(lp2008
S'17.4968'
p2009
aS'78.3854'
p2010
aa(lp2011
S'17.4968'
p2012
aS'78.3853'
p2013
aa(lp2014
S'17.4968'
p2015
aS'78.3853'
p2016
aa(lp2017
S'17.4968'
p2018
aS'78.3853'
p2019
aa(lp2020
S'17.4968'
p2021
aS'78.3853'
p2022
aa(lp2023
S'17.4968'
p2024
aS'78.3853'
p2025
aa(lp2026
S'17.4968'
p2027
aS'78.3853'
p2028
aa(lp2029
S'17.4968'
p2030
aS'78.3853'
p2031
aa(lp2032
S'17.4968'
p2033
aS'78.3853'
p2034
aa(lp2035
S'17.4968'
p2036
aS'78.3853'
p2037
aa(lp2038
S'17.4968'
p2039
aS'78.3853'
p2040
aa(lp2041
S'17.4968'
p2042
aS'78.3852'
p2043
aa(lp2044
S'17.4968'
p2045
aS'78.3852'
p2046
aa(lp2047
S'17.4968'
p2048
aS'78.3852'
p2049
aa(lp2050
S'17.4968'
p2051
aS'78.3852'
p2052
aa(lp2053
S'17.4968'
p2054
aS'78.3852'
p2055
aa(lp2056
S'17.4968'
p2057
aS'78.3852'
p2058
aa(lp2059
S'17.4968'
p2060
aS'78.3852'
p2061
aa(lp2062
S'17.4968'
p2063
aS'78.3852'
p2064
aa(lp2065
S'17.4968'
p2066
aS'78.3852'
p2067
aa(lp2068
S'17.4968'
p2069
aS'78.3852'
p2070
aa(lp2071
S'17.4968'
p2072
aS'78.3852'
p2073
aa(lp2074
S'17.4968'
p2075
aS'78.3851'
p2076
aa(lp2077
S'17.4968'
p2078
aS'78.3851'
p2079
aa(lp2080
S'17.4968'
p2081
aS'78.3851'
p2082
aa(lp2083
S'17.4968'
p2084
aS'78.3851'
p2085
aa(lp2086
S'17.4968'
p2087
aS'78.3851'
p2088
aa(lp2089
S'17.4968'
p2090
aS'78.3851'
p2091
aa(lp2092
S'17.4968'
p2093
aS'78.3851'
p2094
aa(lp2095
S'17.4968'
p2096
aS'78.3851'
p2097
aa(lp2098
S'17.4968'
p2099
aS'78.3851'
p2100
aa(lp2101
S'17.4968'
p2102
aS'78.3851'
p2103
aa(lp2104
S'17.4968'
p2105
aS'78.3851'
p2106
aa(lp2107
S'17.4968'
p2108
aS'78.3850'
p2109
aa(lp2110
S'17.4968'
p2111
aS'78.3850'
p2112
aa(lp2113
S'17.4968'
p2114
aS'78.3850'
p2115
aa(lp2116
S'17.4968'
p2117
aS'78.3850'
p2118
aa(lp2119
S'17.4968'
p2120
aS'78.3850'
p2121
aa(lp2122
S'17.4968'
p2123
aS'78.3850'
p2124
aa(lp2125
S'17.4968'
p2126
aS'78.3850'
p2127
aa(lp2128
S'17.4968'
p2129
aS'78.3850'
p2130
aa(lp2131
S'17.4968'
p2132
aS'78.3850'
p2133
aa(lp2134
S'17.4968'
p2135
aS'78.3850'
p2136
aa(lp2137
S'17.4968'
p2138
aS'78.3849'
p2139
aa(lp2140
S'17.4968'
p2141
aS'78.3849'
p2142
aa(lp2143
S'17.4968'
p2144
aS'78.3849'
p2145
aa(lp2146
S'17.4968'
p2147
aS'78.3849'
p2148
aa(lp2149
S'17.4968'
p2150
aS'78.3849'
p2151
aa(lp2152
S'17.4968'
p2153
aS'78.3849'
p2154
aa(lp2155
S'17.4968'
p2156
aS'78.3849'
p2157
aa(lp2158
S'17.4968'
p2159
aS'78.3849'
p2160
aa(lp2161
S'17.4968'
p2162
aS'78.3849'
p2163
aa(lp2164
S'17.4968'
p2165
aS'78.3849'
p2166
aa(lp2167
S'17.4968'
p2168
aS'78.3849'
p2169
aa(lp2170
S'17.4968'
p2171
aS'78.3848'
p2172
aa(lp2173
S'17.4968'
p2174
aS'78.3848'
p2175
aa(lp2176
S'17.4968'
p2177
aS'78.3848'
p2178
aa(lp2179
S'17.4968'
p2180
aS'78.3848'
p2181
aa(lp2182
S'17.4968'
p2183
aS'78.3848'
p2184
aa(lp2185
S'17.4968'
p2186
aS'78.3848'
p2187
aa(lp2188
S'17.4968'
p2189
aS'78.3848'
p2190
aa(lp2191
S'17.4968'
p2192
aS'78.3848'
p2193
aa(lp2194
S'17.4968'
p2195
aS'78.3848'
p2196
aa(lp2197
S'17.4968'
p2198
aS'78.3848'
p2199
aa(lp2200
S'17.4968'
p2201
aS'78.3847'
p2202
aa(lp2203
S'17.4968'
p2204
aS'78.3847'
p2205
aa(lp2206
S'17.4968'
p2207
aS'78.3847'
p2208
aa(lp2209
S'17.4968'
p2210
aS'78.3847'
p2211
aa(lp2212
S'17.4968'
p2213
aS'78.3847'
p2214
aa(lp2215
S'17.4968'
p2216
aS'78.3847'
p2217
aa(lp2218
S'17.4968'
p2219
aS'78.3847'
p2220
aa(lp2221
S'17.4968'
p2222
aS'78.3847'
p2223
aa(lp2224
S'17.4968'
p2225
aS'78.3847'
p2226
aa(lp2227
S'17.4968'
p2228
aS'78.3847'
p2229
aa(lp2230
S'17.4968'
p2231
aS'78.3847'
p2232
aa(lp2233
S'17.4968'
p2234
aS'78.3846'
p2235
aa(lp2236
S'17.4968'
p2237
aS'78.3846'
p2238
aa(lp2239
S'17.4968'
p2240
aS'78.3846'
p2241
aa(lp2242
S'17.4968'
p2243
aS'78.3846'
p2244
aa(lp2245
S'17.4968'
p2246
aS'78.3846'
p2247
aa(lp2248
S'17.4968'
p2249
aS'78.3846'
p2250
aa(lp2251
S'17.4968'
p2252
aS'78.3846'
p2253
aa(lp2254
S'17.4968'
p2255
aS'78.3846'
p2256
aa(lp2257
S'17.4968'
p2258
aS'78.3846'
p2259
aa(lp2260
S'17.4968'
p2261
aS'78.3846'
p2262
aa(lp2263
S'17.4968'
p2264
aS'78.3846'
p2265
aa(lp2266
S'17.4968'
p2267
aS'78.3845'
p2268
aa(lp2269
S'17.4968'
p2270
aS'78.3845'
p2271
aa(lp2272
S'17.4968'
p2273
aS'78.3845'
p2274
aa(lp2275
S'17.4968'
p2276
aS'78.3845'
p2277
aa(lp2278
S'17.4968'
p2279
aS'78.3845'
p2280
aa(lp2281
S'17.4968'
p2282
aS'78.3845'
p2283
aa(lp2284
S'17.4968'
p2285
aS'78.3845'
p2286
aa(lp2287
S'17.4968'
p2288
aS'78.3845'
p2289
aa(lp2290
S'17.4968'
p2291
aS'78.3845'
p2292
aa(lp2293
S'17.4968'
p2294
aS'78.3845'
p2295
aa(lp2296
S'17.4968'
p2297
aS'78.3844'
p2298
aa(lp2299
S'17.4968'
p2300
aS'78.3844'
p2301
aa(lp2302
S'17.4968'
p2303
aS'78.3844'
p2304
aa(lp2305
S'17.4968'
p2306
aS'78.3844'
p2307
aa(lp2308
S'17.4968'
p2309
aS'78.3844'
p2310
aa(lp2311
S'17.4968'
p2312
aS'78.3844'
p2313
aa(lp2314
S'17.4968'
p2315
aS'78.3844'
p2316
aa(lp2317
S'17.4968'
p2318
aS'78.3844'
p2319
aa(lp2320
S'17.4968'
p2321
aS'78.3844'
p2322
aa(lp2323
S'17.4968'
p2324
aS'78.3844'
p2325
aa(lp2326
S'17.4968'
p2327
aS'78.3844'
p2328
aa(lp2329
S'17.4968'
p2330
aS'78.3843'
p2331
aa(lp2332
S'17.4968'
p2333
aS'78.3843'
p2334
aa(lp2335
S'17.4968'
p2336
aS'78.3843'
p2337
aa(lp2338
S'17.4968'
p2339
aS'78.3843'
p2340
aa(lp2341
S'17.4968'
p2342
aS'78.3843'
p2343
aa(lp2344
S'17.4968'
p2345
aS'78.3843'
p2346
aa(lp2347
S'17.4968'
p2348
aS'78.3843'
p2349
aa(lp2350
S'17.4968'
p2351
aS'78.3843'
p2352
aa(lp2353
S'17.4968'
p2354
aS'78.3843'
p2355
aa(lp2356
S'17.4968'
p2357
aS'78.3843'
p2358
aa(lp2359
S'17.4968'
p2360
aS'78.3842'
p2361
aa(lp2362
S'17.4968'
p2363
aS'78.3842'
p2364
aa(lp2365
S'17.4968'
p2366
aS'78.3842'
p2367
aa(lp2368
S'17.4968'
p2369
aS'78.3842'
p2370
aa(lp2371
S'17.4968'
p2372
aS'78.3842'
p2373
aa(lp2374
S'17.4968'
p2375
aS'78.3842'
p2376
aa(lp2377
S'17.4968'
p2378
aS'78.3842'
p2379
aa(lp2380
S'17.4968'
p2381
aS'78.3842'
p2382
aa(lp2383
S'17.4968'
p2384
aS'78.3842'
p2385
aa(lp2386
S'17.4968'
p2387
aS'78.3842'
p2388
aa(lp2389
S'17.4968'
p2390
aS'78.3842'
p2391
aa(lp2392
S'17.4968'
p2393
aS'78.3841'
p2394
aa(lp2395
S'17.4968'
p2396
aS'78.3841'
p2397
aa(lp2398
S'17.4968'
p2399
aS'78.3841'
p2400
aa(lp2401
S'17.4968'
p2402
aS'78.3841'
p2403
aa(lp2404
S'17.4968'
p2405
aS'78.3841'
p2406
aa(lp2407
S'17.4968'
p2408
aS'78.3841'
p2409
aa(lp2410
S'17.4968'
p2411
aS'78.3841'
p2412
aa(lp2413
S'17.4968'
p2414
aS'78.3841'
p2415
aa(lp2416
S'17.4968'
p2417
aS'78.3841'
p2418
aa(lp2419
S'17.4968'
p2420
aS'78.3841'
p2421
aa(lp2422
S'17.4968'
p2423
aS'78.3841'
p2424
aa(lp2425
S'17.4968'
p2426
aS'78.3840'
p2427
aa(lp2428
S'17.4968'
p2429
aS'78.3840'
p2430
aa(lp2431
S'17.4968'
p2432
aS'78.3840'
p2433
aa(lp2434
S'17.4968'
p2435
aS'78.3840'
p2436
aa(lp2437
S'17.4968'
p2438
aS'78.3840'
p2439
aa(lp2440
S'17.4968'
p2441
aS'78.3840'
p2442
aa(lp2443
S'17.4968'
p2444
aS'78.3840'
p2445
aa(lp2446
S'17.4968'
p2447
aS'78.3840'
p2448
aa(lp2449
S'17.4968'
p2450
aS'78.3840'
p2451
aa(lp2452
S'17.4968'
p2453
aS'78.3840'
p2454
aa(lp2455
S'17.4968'
p2456
aS'78.3839'
p2457
aa(lp2458
S'17.4968'
p2459
aS'78.3839'
p2460
aa(lp2461
S'17.4968'
p2462
aS'78.3839'
p2463
aa(lp2464
S'17.4968'
p2465
aS'78.3839'
p2466
aa(lp2467
S'17.4968'
p2468
aS'78.3839'
p2469
aa(lp2470
S'17.4968'
p2471
aS'78.3839'
p2472
aa(lp2473
S'17.4968'
p2474
aS'78.3839'
p2475
aa(lp2476
S'17.4968'
p2477
aS'78.3839'
p2478
aa(lp2479
S'17.4968'
p2480
aS'78.3839'
p2481
aa(lp2482
S'17.4968'
p2483
aS'78.3839'
p2484
aa(lp2485
S'17.4968'
p2486
aS'78.3839'
p2487
aa(lp2488
S'17.4968'
p2489
aS'78.3838'
p2490
aa(lp2491
S'17.4968'
p2492
aS'78.3838'
p2493
aa(lp2494
S'17.4968'
p2495
aS'78.3838'
p2496
aa(lp2497
S'17.4968'
p2498
aS'78.3838'
p2499
aa(lp2500
S'17.4968'
p2501
aS'78.3838'
p2502
aa(lp2503
S'17.4968'
p2504
aS'78.3838'
p2505
aa(lp2506
S'17.4968'
p2507
aS'78.3838'
p2508
aa(lp2509
S'17.4968'
p2510
aS'78.3838'
p2511
aa(lp2512
S'17.4968'
p2513
aS'78.3838'
p2514
aa(lp2515
S'17.4968'
p2516
aS'78.3838'
p2517
aa(lp2518
S'17.4968'
p2519
aS'78.3838'
p2520
aa(lp2521
S'17.4968'
p2522
aS'78.3837'
p2523
aa(lp2524
S'17.4968'
p2525
aS'78.3837'
p2526
aa(lp2527
S'17.4968'
p2528
aS'78.3837'
p2529
aa(lp2530
S'17.4968'
p2531
aS'78.3837'
p2532
aa(lp2533
S'17.4968'
p2534
aS'78.3837'
p2535
aa(lp2536
S'17.4968'
p2537
aS'78.3837'
p2538
aa(lp2539
S'17.4968'
p2540
aS'78.3837'
p2541
aa(lp2542
S'17.4968'
p2543
aS'78.3837'
p2544
aa(lp2545
S'17.4968'
p2546
aS'78.3837'
p2547
aa(lp2548
S'17.4968'
p2549
aS'78.3837'
p2550
aa(lp2551
S'17.4968'
p2552
aS'78.3836'
p2553
aa(lp2554
S'17.4968'
p2555
aS'78.3836'
p2556
aa(lp2557
S'17.4968'
p2558
aS'78.3836'
p2559
aa(lp2560
S'17.4968'
p2561
aS'78.3836'
p2562
aa(lp2563
S'17.4968'
p2564
aS'78.3836'
p2565
aa(lp2566
S'17.4968'
p2567
aS'78.3836'
p2568
aa(lp2569
S'17.4968'
p2570
aS'78.3836'
p2571
aa(lp2572
S'17.4968'
p2573
aS'78.3836'
p2574
aa(lp2575
S'17.4968'
p2576
aS'78.3836'
p2577
aa(lp2578
S'17.4968'
p2579
aS'78.3836'
p2580
aa(lp2581
S'17.4968'
p2582
aS'78.3836'
p2583
aa(lp2584
S'17.4968'
p2585
aS'78.3835'
p2586
aa(lp2587
S'17.4968'
p2588
aS'78.3835'
p2589
aa(lp2590
S'17.4968'
p2591
aS'78.3835'
p2592
aa(lp2593
S'17.4968'
p2594
aS'78.3835'
p2595
aa(lp2596
S'17.4968'
p2597
aS'78.3835'
p2598
aa(lp2599
S'17.4967'
p2600
aS'78.3835'
p2601
aa(lp2602
S'17.4967'
p2603
aS'78.3835'
p2604
aa(lp2605
S'17.4967'
p2606
aS'78.3835'
p2607
aa(lp2608
S'17.4967'
p2609
aS'78.3835'
p2610
aa(lp2611
S'17.4967'
p2612
aS'78.3835'
p2613
aa(lp2614
S'17.4967'
p2615
aS'78.3834'
p2616
aa(lp2617
S'17.4967'
p2618
aS'78.3834'
p2619
aa(lp2620
S'17.4967'
p2621
aS'78.3834'
p2622
aa(lp2623
S'17.4967'
p2624
aS'78.3834'
p2625
aa(lp2626
S'17.4967'
p2627
aS'78.3834'
p2628
aa(lp2629
S'17.4967'
p2630
aS'78.3834'
p2631
aa(lp2632
S'17.4967'
p2633
aS'78.3834'
p2634
aa(lp2635
S'17.4967'
p2636
aS'78.3834'
p2637
aa(lp2638
S'17.4967'
p2639
aS'78.3834'
p2640
aa(lp2641
S'17.4967'
p2642
aS'78.3834'
p2643
aa(lp2644
S'17.4967'
p2645
aS'78.3834'
p2646
aa(lp2647
S'17.4967'
p2648
aS'78.3833'
p2649
aa(lp2650
S'17.4967'
p2651
aS'78.3833'
p2652
aa(lp2653
S'17.4967'
p2654
aS'78.3833'
p2655
aa(lp2656
S'17.4967'
p2657
aS'78.3833'
p2658
aa(lp2659
S'17.4967'
p2660
aS'78.3833'
p2661
aa(lp2662
S'17.4967'
p2663
aS'78.3833'
p2664
aa(lp2665
S'17.4967'
p2666
aS'78.3833'
p2667
aa(lp2668
S'17.4967'
p2669
aS'78.3833'
p2670
aa(lp2671
S'17.4967'
p2672
aS'78.3833'
p2673
aa(lp2674
S'17.4967'
p2675
aS'78.3833'
p2676
aa(lp2677
S'17.4967'
p2678
aS'78.3833'
p2679
aa(lp2680
S'17.4967'
p2681
aS'78.3832'
p2682
aa(lp2683
S'17.4967'
p2684
aS'78.3832'
p2685
aa(lp2686
S'17.4967'
p2687
aS'78.3832'
p2688
aa(lp2689
S'17.4967'
p2690
aS'78.3832'
p2691
aa(lp2692
S'17.4967'
p2693
aS'78.3832'
p2694
aa(lp2695
S'17.4967'
p2696
aS'78.3832'
p2697
aa(lp2698
S'17.4967'
p2699
aS'78.3832'
p2700
aa(lp2701
S'17.4967'
p2702
aS'78.3832'
p2703
aa(lp2704
S'17.4967'
p2705
aS'78.3832'
p2706
aa(lp2707
S'17.4967'
p2708
aS'78.3832'
p2709
aa(lp2710
S'17.4967'
p2711
aS'78.3831'
p2712
aa(lp2713
S'17.4967'
p2714
aS'78.3831'
p2715
aa(lp2716
S'17.4967'
p2717
aS'78.3831'
p2718
aa(lp2719
S'17.4967'
p2720
aS'78.3831'
p2721
aa(lp2722
S'17.4967'
p2723
aS'78.3831'
p2724
aa(lp2725
S'17.4967'
p2726
aS'78.3831'
p2727
aa(lp2728
S'17.4967'
p2729
aS'78.3831'
p2730
aa(lp2731
S'17.4967'
p2732
aS'78.3831'
p2733
aa(lp2734
S'17.4967'
p2735
aS'78.3831'
p2736
aa(lp2737
S'17.4967'
p2738
aS'78.3831'
p2739
aa(lp2740
S'17.4967'
p2741
aS'78.3831'
p2742
aa(lp2743
S'17.4967'
p2744
aS'78.3830'
p2745
aa(lp2746
S'17.4967'
p2747
aS'78.3830'
p2748
aa(lp2749
S'17.4967'
p2750
aS'78.3830'
p2751
aa(lp2752
S'17.4967'
p2753
aS'78.3830'
p2754
aa(lp2755
S'17.4967'
p2756
aS'78.3830'
p2757
aa(lp2758
S'17.4967'
p2759
aS'78.3830'
p2760
aa(lp2761
S'17.4967'
p2762
aS'78.3830'
p2763
aa(lp2764
S'17.4967'
p2765
aS'78.3830'
p2766
aa(lp2767
S'17.4967'
p2768
aS'78.3830'
p2769
aa(lp2770
S'17.4967'
p2771
aS'78.3830'
p2772
aa(lp2773
S'17.4967'
p2774
aS'78.3830'
p2775
aa(lp2776
S'17.4967'
p2777
aS'78.3829'
p2778
aa(lp2779
S'17.4967'
p2780
aS'78.3829'
p2781
aa(lp2782
S'17.4967'
p2783
aS'78.3829'
p2784
aa(lp2785
S'17.4967'
p2786
aS'78.3829'
p2787
aa(lp2788
S'17.4967'
p2789
aS'78.3829'
p2790
aa(lp2791
S'17.4967'
p2792
aS'78.3829'
p2793
aa(lp2794
S'17.4967'
p2795
aS'78.3829'
p2796
aa(lp2797
S'17.4967'
p2798
aS'78.3829'
p2799
aa(lp2800
S'17.4967'
p2801
aS'78.3829'
p2802
aa(lp2803
S'17.4967'
p2804
aS'78.3829'
p2805
aa(lp2806
S'17.4967'
p2807
aS'78.3828'
p2808
aa(lp2809
S'17.4967'
p2810
aS'78.3828'
p2811
aa(lp2812
S'17.4967'
p2813
aS'78.3828'
p2814
aa(lp2815
S'17.4967'
p2816
aS'78.3828'
p2817
aa(lp2818
S'17.4967'
p2819
aS'78.3828'
p2820
aa(lp2821
S'17.4967'
p2822
aS'78.3828'
p2823
aa(lp2824
S'17.4967'
p2825
aS'78.3828'
p2826
aa(lp2827
S'17.4967'
p2828
aS'78.3828'
p2829
aa(lp2830
S'17.4967'
p2831
aS'78.3828'
p2832
aa(lp2833
S'17.4967'
p2834
aS'78.3828'
p2835
aa(lp2836
S'17.4967'
p2837
aS'78.3828'
p2838
aa(lp2839
S'17.4967'
p2840
aS'78.3827'
p2841
aa(lp2842
S'17.4967'
p2843
aS'78.3827'
p2844
aa(lp2845
S'17.4967'
p2846
aS'78.3827'
p2847
aa(lp2848
S'17.4967'
p2849
aS'78.3827'
p2850
aa(lp2851
S'17.4967'
p2852
aS'78.3827'
p2853
aa(lp2854
S'17.4967'
p2855
aS'78.3827'
p2856
aa(lp2857
S'17.4967'
p2858
aS'78.3827'
p2859
aa(lp2860
S'17.4967'
p2861
aS'78.3827'
p2862
aa(lp2863
S'17.4967'
p2864
aS'78.3827'
p2865
aa(lp2866
S'17.4967'
p2867
aS'78.3827'
p2868
aa(lp2869
S'17.4967'
p2870
aS'78.3826'
p2871
aa(lp2872
S'17.4967'
p2873
aS'78.3826'
p2874
aa(lp2875
S'17.4967'
p2876
aS'78.3826'
p2877
aa(lp2878
S'17.4967'
p2879
aS'78.3826'
p2880
aa(lp2881
S'17.4967'
p2882
aS'78.3826'
p2883
aa(lp2884
S'17.4967'
p2885
aS'78.3826'
p2886
aa(lp2887
S'17.4967'
p2888
aS'78.3826'
p2889
aa(lp2890
S'17.4967'
p2891
aS'78.3826'
p2892
aa(lp2893
S'17.4967'
p2894
aS'78.3826'
p2895
aa(lp2896
S'17.4967'
p2897
aS'78.3826'
p2898
aa(lp2899
S'17.4967'
p2900
aS'78.3826'
p2901
aa(lp2902
S'17.4967'
p2903
aS'78.3825'
p2904
aa(lp2905
S'17.4967'
p2906
aS'78.3825'
p2907
aa(lp2908
S'17.4967'
p2909
aS'78.3825'
p2910
aa(lp2911
S'17.4967'
p2912
aS'78.3825'
p2913
aa(lp2914
S'17.4967'
p2915
aS'78.3825'
p2916
aa(lp2917
S'17.4967'
p2918
aS'78.3825'
p2919
aa(lp2920
S'17.4967'
p2921
aS'78.3825'
p2922
aa(lp2923
S'17.4967'
p2924
aS'78.3825'
p2925
aa(lp2926
S'17.4967'
p2927
aS'78.3825'
p2928
aa(lp2929
S'17.4967'
p2930
aS'78.3825'
p2931
aa(lp2932
S'17.4967'
p2933
aS'78.3825'
p2934
aa(lp2935
S'17.4967'
p2936
aS'78.3824'
p2937
aa(lp2938
S'17.4967'
p2939
aS'78.3824'
p2940
aa(lp2941
S'17.4967'
p2942
aS'78.3824'
p2943
aa(lp2944
S'17.4967'
p2945
aS'78.3824'
p2946
aa(lp2947
S'17.4967'
p2948
aS'78.3824'
p2949
aa(lp2950
S'17.4967'
p2951
aS'78.3824'
p2952
aa(lp2953
S'17.4967'
p2954
aS'78.3824'
p2955
aa(lp2956
S'17.4967'
p2957
aS'78.3824'
p2958
aa(lp2959
S'17.4967'
p2960
aS'78.3824'
p2961
aa(lp2962
S'17.4967'
p2963
aS'78.3824'
p2964
aa(lp2965
S'17.4967'
p2966
aS'78.3823'
p2967
aa(lp2968
S'17.4967'
p2969
aS'78.3823'
p2970
aa(lp2971
S'17.4967'
p2972
aS'78.3823'
p2973
aa(lp2974
S'17.4967'
p2975
aS'78.3823'
p2976
aa(lp2977
S'17.4967'
p2978
aS'78.3823'
p2979
aa(lp2980
S'17.4967'
p2981
aS'78.3823'
p2982
aa(lp2983
S'17.4967'
p2984
aS'78.3823'
p2985
aa(lp2986
S'17.4967'
p2987
aS'78.3823'
p2988
aa(lp2989
S'17.4967'
p2990
aS'78.3823'
p2991
aa(lp2992
S'17.4967'
p2993
aS'78.3823'
p2994
aa(lp2995
S'17.4967'
p2996
aS'78.3823'
p2997
aa(lp2998
S'17.4967'
p2999
aS'78.3822'
p3000
aa(lp3001
S'17.4967'
p3002
aS'78.3822'
p3003
aa(lp3004
S'17.4967'
p3005
aS'78.3822'
p3006
aa(lp3007
S'17.4967'
p3008
aS'78.3822'
p3009
aa(lp3010
S'17.4967'
p3011
aS'78.3822'
p3012
aa(lp3013
S'17.4967'
p3014
aS'78.3822'
p3015
aa(lp3016
S'17.4967'
p3017
aS'78.3822'
p3018
aa(lp3019
S'17.4967'
p3020
aS'78.3822'
p3021
aa(lp3022
S'17.4967'
p3023
aS'78.3822'
p3024
aa(lp3025
S'17.4967'
p3026
aS'78.3822'
p3027
aa(lp3028
S'17.4967'
p3029
aS'78.3821'
p3030
aa(lp3031
S'17.4967'
p3032
aS'78.3821'
p3033
aa(lp3034
S'17.4967'
p3035
aS'78.3821'
p3036
aa(lp3037
S'17.4967'
p3038
aS'78.3821'
p3039
aa(lp3040
S'17.4967'
p3041
aS'78.3821'
p3042
aa(lp3043
S'17.4967'
p3044
aS'78.3821'
p3045
aa(lp3046
S'17.4967'
p3047
aS'78.3821'
p3048
aa(lp3049
S'17.4967'
p3050
aS'78.3821'
p3051
aa(lp3052
S'17.4967'
p3053
aS'78.3821'
p3054
aa(lp3055
S'17.4967'
p3056
aS'78.3821'
p3057
aa(lp3058
S'17.4967'
p3059
aS'78.3821'
p3060
aa(lp3061
S'17.4967'
p3062
aS'78.3820'
p3063
aa(lp3064
S'17.4967'
p3065
aS'78.3820'
p3066
aa(lp3067
S'17.4967'
p3068
aS'78.3820'
p3069
aa(lp3070
S'17.4967'
p3071
aS'78.3820'
p3072
aa(lp3073
S'17.4967'
p3074
aS'78.3820'
p3075
aa(lp3076
S'17.4967'
p3077
aS'78.3820'
p3078
aa(lp3079
S'17.4967'
p3080
aS'78.3820'
p3081
aa(lp3082
S'17.4967'
p3083
aS'78.3820'
p3084
aa(lp3085
S'17.4967'
p3086
aS'78.3820'
p3087
aa(lp3088
S'17.4967'
p3089
aS'78.3820'
p3090
aa(lp3091
S'17.4967'
p3092
aS'78.3820'
p3093
aa(lp3094
S'17.4967'
p3095
aS'78.3819'
p3096
aa(lp3097
S'17.4967'
p3098
aS'78.3819'
p3099
aa(lp3100
S'17.4967'
p3101
aS'78.3819'
p3102
aa(lp3103
S'17.4967'
p3104
aS'78.3819'
p3105
aa(lp3106
S'17.4967'
p3107
aS'78.3819'
p3108
aa(lp3109
S'17.4967'
p3110
aS'78.3819'
p3111
aa(lp3112
S'17.4967'
p3113
aS'78.3819'
p3114
aa(lp3115
S'17.4967'
p3116
aS'78.3819'
p3117
aa(lp3118
S'17.4967'
p3119
aS'78.3819'
p3120
aa(lp3121
S'17.4967'
p3122
aS'78.3819'
p3123
aa(lp3124
S'17.4967'
p3125
aS'78.3818'
p3126
aa(lp3127
S'17.4967'
p3128
aS'78.3818'
p3129
aa(lp3130
S'17.4967'
p3131
aS'78.3818'
p3132
aa(lp3133
S'17.4967'
p3134
aS'78.3818'
p3135
aa(lp3136
S'17.4967'
p3137
aS'78.3818'
p3138
aa(lp3139
S'17.4967'
p3140
aS'78.3818'
p3141
aa(lp3142
S'17.4967'
p3143
aS'78.3818'
p3144
aa(lp3145
S'17.4967'
p3146
aS'78.3818'
p3147
aa(lp3148
S'17.4967'
p3149
aS'78.3818'
p3150
aa(lp3151
S'17.4967'
p3152
aS'78.3818'
p3153
aa(lp3154
S'17.4967'
p3155
aS'78.3818'
p3156
aa(lp3157
S'17.4967'
p3158
aS'78.3817'
p3159
aa(lp3160
S'17.4967'
p3161
aS'78.3817'
p3162
aa(lp3163
S'17.4967'
p3164
aS'78.3817'
p3165
aa(lp3166
S'17.4967'
p3167
aS'78.3817'
p3168
aa(lp3169
S'17.4967'
p3170
aS'78.3817'
p3171
aa(lp3172
S'17.4967'
p3173
aS'78.3817'
p3174
aa(lp3175
S'17.4967'
p3176
aS'78.3817'
p3177
aa(lp3178
S'17.4967'
p3179
aS'78.3817'
p3180
aa(lp3181
S'17.4967'
p3182
aS'78.3817'
p3183
aa(lp3184
S'17.4967'
p3185
aS'78.3817'
p3186
aa(lp3187
S'17.4967'
p3188
aS'78.3817'
p3189
aa(lp3190
S'17.4967'
p3191
aS'78.3816'
p3192
aa(lp3193
S'17.4967'
p3194
aS'78.3816'
p3195
aa(lp3196
S'17.4967'
p3197
aS'78.3816'
p3198
aa(lp3199
S'17.4967'
p3200
aS'78.3816'
p3201
aa(lp3202
S'17.4967'
p3203
aS'78.3816'
p3204
aa(lp3205
S'17.4967'
p3206
aS'78.3816'
p3207
aa(lp3208
S'17.4967'
p3209
aS'78.3816'
p3210
aa(lp3211
S'17.4967'
p3212
aS'78.3816'
p3213
aa(lp3214
S'17.4967'
p3215
aS'78.3816'
p3216
aa(lp3217
S'17.4967'
p3218
aS'78.3816'
p3219
aa(lp3220
S'17.4967'
p3221
aS'78.3815'
p3222
aa(lp3223
S'17.4967'
p3224
aS'78.3815'
p3225
aa(lp3226
S'17.4967'
p3227
aS'78.3815'
p3228
aa(lp3229
S'17.4967'
p3230
aS'78.3815'
p3231
aa(lp3232
S'17.4967'
p3233
aS'78.3815'
p3234
aa(lp3235
S'17.4967'
p3236
aS'78.3815'
p3237
aa(lp3238
S'17.4967'
p3239
aS'78.3815'
p3240
aa(lp3241
S'17.4967'
p3242
aS'78.3815'
p3243
aa(lp3244
S'17.4967'
p3245
aS'78.3815'
p3246
aa(lp3247
S'17.4967'
p3248
aS'78.3815'
p3249
aa(lp3250
S'17.4967'
p3251
aS'78.3815'
p3252
aa(lp3253
S'17.4967'
p3254
aS'78.3814'
p3255
aa(lp3256
S'17.4967'
p3257
aS'78.3814'
p3258
aa(lp3259
S'17.4967'
p3260
aS'78.3814'
p3261
aa(lp3262
S'17.4967'
p3263
aS'78.3814'
p3264
aa(lp3265
S'17.4967'
p3266
aS'78.3814'
p3267
aa(lp3268
S'17.4967'
p3269
aS'78.3814'
p3270
aa(lp3271
S'17.4967'
p3272
aS'78.3814'
p3273
aa(lp3274
S'17.4967'
p3275
aS'78.3814'
p3276
aa(lp3277
S'17.4967'
p3278
aS'78.3814'
p3279
aa(lp3280
S'17.4967'
p3281
aS'78.3814'
p3282
aa(lp3283
S'17.4967'
p3284
aS'78.3813'
p3285
aa(lp3286
S'17.4967'
p3287
aS'78.3813'
p3288
aa(lp3289
S'17.4967'
p3290
aS'78.3813'
p3291
aa(lp3292
S'17.4967'
p3293
aS'78.3813'
p3294
aa(lp3295
S'17.4967'
p3296
aS'78.3813'
p3297
aa(lp3298
S'17.4967'
p3299
aS'78.3813'
p3300
aa(lp3301
S'17.4967'
p3302
aS'78.3813'
p3303
aa(lp3304
S'17.4967'
p3305
aS'78.3813'
p3306
aa(lp3307
S'17.4967'
p3308
aS'78.3813'
p3309
aa(lp3310
S'17.4967'
p3311
aS'78.3813'
p3312
aa(lp3313
S'17.4967'
p3314
aS'78.3813'
p3315
aa(lp3316
S'17.4967'
p3317
aS'78.3812'
p3318
aa(lp3319
S'17.4967'
p3320
aS'78.3812'
p3321
aa(lp3322
S'17.4967'
p3323
aS'78.3812'
p3324
aa(lp3325
S'17.4967'
p3326
aS'78.3812'
p3327
aa(lp3328
S'17.4967'
p3329
aS'78.3812'
p3330
aa(lp3331
S'17.4967'
p3332
aS'78.3812'
p3333
aa(lp3334
S'17.4967'
p3335
aS'78.3812'
p3336
aa(lp3337
S'17.4967'
p3338
aS'78.3812'
p3339
aa(lp3340
S'17.4967'
p3341
aS'78.3812'
p3342
aa(lp3343
S'17.4967'
p3344
aS'78.3812'
p3345
aa(lp3346
S'17.4967'
p3347
aS'78.3812'
p3348
aa(lp3349
S'17.4967'
p3350
aS'78.3811'
p3351
aa(lp3352
S'17.4967'
p3353
aS'78.3811'
p3354
aa(lp3355
S'17.4967'
p3356
aS'78.3811'
p3357
aa(lp3358
S'17.4967'
p3359
aS'78.3811'
p3360
aa(lp3361
S'17.4967'
p3362
aS'78.3811'
p3363
aa(lp3364
S'17.4967'
p3365
aS'78.3811'
p3366
aa(lp3367
S'17.4967'
p3368
aS'78.3811'
p3369
aa(lp3370
S'17.4967'
p3371
aS'78.3811'
p3372
aa(lp3373
S'17.4967'
p3374
aS'78.3811'
p3375
aa(lp3376
S'17.4967'
p3377
aS'78.3811'
p3378
aa(lp3379
S'17.4967'
p3380
aS'78.3810'
p3381
aa(lp3382
S'17.4967'
p3383
aS'78.3810'
p3384
aa(lp3385
S'17.4967'
p3386
aS'78.3810'
p3387
aa(lp3388
S'17.4967'
p3389
aS'78.3810'
p3390
aa(lp3391
S'17.4967'
p3392
aS'78.3810'
p3393
aa(lp3394
S'17.4967'
p3395
aS'78.3810'
p3396
aa(lp3397
S'17.4967'
p3398
aS'78.3810'
p3399
aa(lp3400
S'17.4967'
p3401
aS'78.3810'
p3402
aa(lp3403
S'17.4967'
p3404
aS'78.3810'
p3405
aa(lp3406
S'17.4967'
p3407
aS'78.3810'
p3408
aa(lp3409
S'17.4967'
p3410
aS'78.3810'
p3411
aa(lp3412
S'17.4967'
p3413
aS'78.3809'
p3414
aa(lp3415
S'17.4967'
p3416
aS'78.3809'
p3417
aa(lp3418
S'17.4967'
p3419
aS'78.3809'
p3420
aa(lp3421
S'17.4967'
p3422
aS'78.3809'
p3423
aa(lp3424
S'17.4967'
p3425
aS'78.3809'
p3426
aa(lp3427
S'17.4967'
p3428
aS'78.3809'
p3429
aa(lp3430
S'17.4967'
p3431
aS'78.3809'
p3432
aa(lp3433
S'17.4967'
p3434
aS'78.3809'
p3435
aa(lp3436
S'17.4967'
p3437
aS'78.3809'
p3438
aa(lp3439
S'17.4967'
p3440
aS'78.3809'
p3441
aa(lp3442
S'17.4967'
p3443
aS'78.3808'
p3444
aa(lp3445
S'17.4967'
p3446
aS'78.3808'
p3447
aa(lp3448
S'17.4967'
p3449
aS'78.3808'
p3450
aa(lp3451
S'17.4967'
p3452
aS'78.3808'
p3453
aa(lp3454
S'17.4967'
p3455
aS'78.3808'
p3456
aa(lp3457
S'17.4967'
p3458
aS'78.3808'
p3459
aa(lp3460
S'17.4967'
p3461
aS'78.3808'
p3462
aa(lp3463
S'17.4967'
p3464
aS'78.3808'
p3465
aa(lp3466
S'17.4967'
p3467
aS'78.3808'
p3468
aa(lp3469
S'17.4967'
p3470
aS'78.3808'
p3471
aa(lp3472
S'17.4967'
p3473
aS'78.3808'
p3474
aa(lp3475
S'17.4967'
p3476
aS'78.3807'
p3477
aa(lp3478
S'17.4967'
p3479
aS'78.3807'
p3480
aa(lp3481
S'17.4967'
p3482
aS'78.3807'
p3483
aa(lp3484
S'17.4967'
p3485
aS'78.3807'
p3486
aa(lp3487
S'17.4967'
p3488
aS'78.3807'
p3489
aa(lp3490
S'17.4967'
p3491
aS'78.3807'
p3492
aa(lp3493
S'17.4967'
p3494
aS'78.3807'
p3495
aa(lp3496
S'17.4967'
p3497
aS'78.3807'
p3498
aa(lp3499
S'17.4967'
p3500
aS'78.3807'
p3501
aa(lp3502
S'17.4967'
p3503
aS'78.3807'
p3504
aa(lp3505
S'17.4967'
p3506
aS'78.3807'
p3507
aa(lp3508
S'17.4967'
p3509
aS'78.3806'
p3510
aa(lp3511
S'17.4967'
p3512
aS'78.3806'
p3513
aa(lp3514
S'17.4967'
p3515
aS'78.3806'
p3516
aa(lp3517
S'17.4967'
p3518
aS'78.3806'
p3519
aa(lp3520
S'17.4967'
p3521
aS'78.3806'
p3522
aa(lp3523
S'17.4967'
p3524
aS'78.3806'
p3525
aa(lp3526
S'17.4967'
p3527
aS'78.3806'
p3528
aa(lp3529
S'17.4967'
p3530
aS'78.3806'
p3531
aa(lp3532
S'17.4967'
p3533
aS'78.3806'
p3534
aa(lp3535
S'17.4967'
p3536
aS'78.3806'
p3537
aa(lp3538
S'17.4967'
p3539
aS'78.3805'
p3540
aa(lp3541
S'17.4967'
p3542
aS'78.3805'
p3543
aa(lp3544
S'17.4967'
p3545
aS'78.3805'
p3546
aa(lp3547
S'17.4967'
p3548
aS'78.3805'
p3549
aa(lp3550
S'17.4967'
p3551
aS'78.3805'
p3552
aa(lp3553
S'17.4967'
p3554
aS'78.3805'
p3555
aa(lp3556
S'17.4967'
p3557
aS'78.3805'
p3558
aa(lp3559
S'17.4967'
p3560
aS'78.3805'
p3561
aa(lp3562
S'17.4967'
p3563
aS'78.3805'
p3564
aa(lp3565
S'17.4967'
p3566
aS'78.3805'
p3567
aa(lp3568
S'17.4967'
p3569
aS'78.3805'
p3570
aa(lp3571
S'17.4967'
p3572
aS'78.3804'
p3573
aa(lp3574
S'17.4967'
p3575
aS'78.3804'
p3576
aa(lp3577
S'17.4967'
p3578
aS'78.3804'
p3579
aa(lp3580
S'17.4967'
p3581
aS'78.3804'
p3582
aa(lp3583
S'17.4967'
p3584
aS'78.3804'
p3585
aa(lp3586
S'17.4967'
p3587
aS'78.3804'
p3588
aa(lp3589
S'17.4967'
p3590
aS'78.3804'
p3591
aa(lp3592
S'17.4967'
p3593
aS'78.3804'
p3594
aa(lp3595
S'17.4967'
p3596
aS'78.3804'
p3597
aa(lp3598
S'17.4967'
p3599
aS'78.3804'
p3600
aa(lp3601
S'17.4967'
p3602
aS'78.3804'
p3603
aa(lp3604
S'17.4967'
p3605
aS'78.3803'
p3606
aa(lp3607
S'17.4967'
p3608
aS'78.3803'
p3609
aa(lp3610
S'17.4967'
p3611
aS'78.3803'
p3612
aa(lp3613
S'17.4967'
p3614
aS'78.3803'
p3615
aa(lp3616
S'17.4967'
p3617
aS'78.3803'
p3618
aa(lp3619
S'17.4967'
p3620
aS'78.3803'
p3621
aa(lp3622
S'17.4967'
p3623
aS'78.3803'
p3624
aa(lp3625
S'17.4967'
p3626
aS'78.3803'
p3627
aa(lp3628
S'17.4967'
p3629
aS'78.3803'
p3630
aa(lp3631
S'17.4967'
p3632
aS'78.3803'
p3633
aa(lp3634
S'17.4967'
p3635
aS'78.3802'
p3636
aa(lp3637
S'17.4967'
p3638
aS'78.3802'
p3639
aa(lp3640
S'17.4967'
p3641
aS'78.3802'
p3642
aa(lp3643
S'17.4967'
p3644
aS'78.3802'
p3645
aa(lp3646
S'17.4967'
p3647
aS'78.3802'
p3648
aa(lp3649
S'17.4967'
p3650
aS'78.3802'
p3651
aa(lp3652
S'17.4967'
p3653
aS'78.3802'
p3654
aa(lp3655
S'17.4967'
p3656
aS'78.3802'
p3657
aa(lp3658
S'17.4967'
p3659
aS'78.3802'
p3660
aa(lp3661
S'17.4967'
p3662
aS'78.3802'
p3663
aa(lp3664
S'17.4967'
p3665
aS'78.3802'
p3666
aa(lp3667
S'17.4967'
p3668
aS'78.3801'
p3669
aa(lp3670
S'17.4967'
p3671
aS'78.3801'
p3672
aa(lp3673
S'17.4967'
p3674
aS'78.3801'
p3675
aa(lp3676
S'17.4967'
p3677
aS'78.3801'
p3678
aa(lp3679
S'17.4967'
p3680
aS'78.3801'
p3681
aa(lp3682
S'17.4967'
p3683
aS'78.3801'
p3684
aa(lp3685
S'17.4967'
p3686
aS'78.3801'
p3687
aa(lp3688
S'17.4967'
p3689
aS'78.3801'
p3690
aa(lp3691
S'17.4967'
p3692
aS'78.3801'
p3693
aa(lp3694
S'17.4967'
p3695
aS'78.3801'
p3696
aa(lp3697
S'17.4967'
p3698
aS'78.3800'
p3699
aa(lp3700
S'17.4967'
p3701
aS'78.3800'
p3702
aa(lp3703
S'17.4967'
p3704
aS'78.3800'
p3705
aa(lp3706
S'17.4967'
p3707
aS'78.3800'
p3708
aa(lp3709
S'17.4967'
p3710
aS'78.3800'
p3711
aa(lp3712
S'17.4967'
p3713
aS'78.3800'
p3714
aa(lp3715
S'17.4967'
p3716
aS'78.3800'
p3717
aa(lp3718
S'17.4967'
p3719
aS'78.3800'
p3720
aa(lp3721
S'17.4967'
p3722
aS'78.3800'
p3723
aa(lp3724
S'17.4967'
p3725
aS'78.3800'
p3726
aa(lp3727
S'17.4967'
p3728
aS'78.3800'
p3729
aa(lp3730
S'17.4967'
p3731
aS'78.3799'
p3732
aa(lp3733
S'17.4967'
p3734
aS'78.3799'
p3735
aa(lp3736
S'17.4967'
p3737
aS'78.3799'
p3738
aa(lp3739
S'17.4967'
p3740
aS'78.3799'
p3741
aa(lp3742
S'17.4967'
p3743
aS'78.3799'
p3744
aa(lp3745
S'17.4967'
p3746
aS'78.3799'
p3747
aa(lp3748
S'17.4967'
p3749
aS'78.3799'
p3750
aa(lp3751
S'17.4967'
p3752
aS'78.3799'
p3753
aa(lp3754
S'17.4967'
p3755
aS'78.3799'
p3756
aa(lp3757
S'17.4967'
p3758
aS'78.3799'
p3759
aa(lp3760
S'17.4967'
p3761
aS'78.3799'
p3762
aa(lp3763
S'17.4967'
p3764
aS'78.3798'
p3765
aa(lp3766
S'17.4967'
p3767
aS'78.3798'
p3768
aa(lp3769
S'17.4967'
p3770
aS'78.3798'
p3771
aa(lp3772
S'17.4967'
p3773
aS'78.3798'
p3774
aa(lp3775
S'17.4967'
p3776
aS'78.3798'
p3777
aa(lp3778
S'17.4967'
p3779
aS'78.3798'
p3780
aa(lp3781
S'17.4967'
p3782
aS'78.3798'
p3783
aa(lp3784
S'17.4967'
p3785
aS'78.3798'
p3786
aa(lp3787
S'17.4967'
p3788
aS'78.3798'
p3789
aa(lp3790
S'17.4967'
p3791
aS'78.3798'
p3792
aa(lp3793
S'17.4967'
p3794
aS'78.3797'
p3795
aa(lp3796
S'17.4967'
p3797
aS'78.3797'
p3798
aa(lp3799
S'17.4967'
p3800
aS'78.3797'
p3801
aa(lp3802
S'17.4967'
p3803
aS'78.3797'
p3804
aa(lp3805
S'17.4967'
p3806
aS'78.3797'
p3807
aa(lp3808
S'17.4967'
p3809
aS'78.3797'
p3810
aa(lp3811
S'17.4967'
p3812
aS'78.3797'
p3813
aa(lp3814
S'17.4967'
p3815
aS'78.3797'
p3816
aa(lp3817
S'17.4967'
p3818
aS'78.3797'
p3819
aa(lp3820
S'17.4967'
p3821
aS'78.3797'
p3822
aa(lp3823
S'17.4967'
p3824
aS'78.3797'
p3825
aa(lp3826
S'17.4967'
p3827
aS'78.3796'
p3828
aa(lp3829
S'17.4967'
p3830
aS'78.3796'
p3831
aa(lp3832
S'17.4967'
p3833
aS'78.3796'
p3834
aa(lp3835
S'17.4967'
p3836
aS'78.3796'
p3837
aa(lp3838
S'17.4967'
p3839
aS'78.3796'
p3840
aa(lp3841
S'17.4967'
p3842
aS'78.3796'
p3843
aa(lp3844
S'17.4967'
p3845
aS'78.3796'
p3846
aa(lp3847
S'17.4967'
p3848
aS'78.3796'
p3849
aa(lp3850
S'17.4967'
p3851
aS'78.3796'
p3852
aa(lp3853
S'17.4967'
p3854
aS'78.3796'
p3855
aa(lp3856
S'17.4967'
p3857
aS'78.3796'
p3858
aa(lp3859
S'17.4967'
p3860
aS'78.3795'
p3861
aa(lp3862
S'17.4967'
p3863
aS'78.3795'
p3864
aa(lp3865
S'17.4967'
p3866
aS'78.3795'
p3867
aa(lp3868
S'17.4967'
p3869
aS'78.3795'
p3870
aa(lp3871
S'17.4967'
p3872
aS'78.3795'
p3873
aa(lp3874
S'17.4967'
p3875
aS'78.3795'
p3876
aa(lp3877
S'17.4967'
p3878
aS'78.3795'
p3879
aa(lp3880
S'17.4967'
p3881
aS'78.3795'
p3882
aa(lp3883
S'17.4967'
p3884
aS'78.3795'
p3885
aa(lp3886
S'17.4967'
p3887
aS'78.3795'
p3888
aa(lp3889
S'17.4967'
p3890
aS'78.3794'
p3891
aa(lp3892
S'17.4967'
p3893
aS'78.3794'
p3894
aa(lp3895
S'17.4967'
p3896
aS'78.3794'
p3897
aa(lp3898
S'17.4967'
p3899
aS'78.3794'
p3900
aa(lp3901
S'17.4967'
p3902
aS'78.3794'
p3903
aa(lp3904
S'17.4967'
p3905
aS'78.3794'
p3906
aa(lp3907
S'17.4967'
p3908
aS'78.3794'
p3909
aa(lp3910
S'17.4967'
p3911
aS'78.3794'
p3912
aa(lp3913
S'17.4967'
p3914
aS'78.3794'
p3915
aa(lp3916
S'17.4967'
p3917
aS'78.3794'
p3918
aa(lp3919
S'17.4967'
p3920
aS'78.3794'
p3921
aa(lp3922
S'17.4967'
p3923
aS'78.3793'
p3924
aa(lp3925
S'17.4967'
p3926
aS'78.3793'
p3927
aa(lp3928
S'17.4967'
p3929
aS'78.3793'
p3930
aa(lp3931
S'17.4967'
p3932
aS'78.3793'
p3933
aa(lp3934
S'17.4967'
p3935
aS'78.3793'
p3936
aa(lp3937
S'17.4967'
p3938
aS'78.3793'
p3939
aa(lp3940
S'17.4967'
p3941
aS'78.3793'
p3942
aa(lp3943
S'17.4967'
p3944
aS'78.3793'
p3945
aa(lp3946
S'17.4967'
p3947
aS'78.3793'
p3948
aa(lp3949
S'17.4967'
p3950
aS'78.3793'
p3951
aa(lp3952
S'17.4967'
p3953
aS'78.3792'
p3954
aa(lp3955
S'17.4967'
p3956
aS'78.3792'
p3957
aa(lp3958
S'17.4967'
p3959
aS'78.3792'
p3960
aa(lp3961
S'17.4967'
p3962
aS'78.3792'
p3963
aa(lp3964
S'17.4967'
p3965
aS'78.3792'
p3966
aa(lp3967
S'17.4967'
p3968
aS'78.3792'
p3969
aa(lp3970
S'17.4967'
p3971
aS'78.3792'
p3972
aa(lp3973
S'17.4967'
p3974
aS'78.3792'
p3975
aa(lp3976
S'17.4967'
p3977
aS'78.3792'
p3978
aa(lp3979
S'17.4967'
p3980
aS'78.3792'
p3981
aa(lp3982
S'17.4967'
p3983
aS'78.3792'
p3984
aa(lp3985
S'17.4967'
p3986
aS'78.3791'
p3987
aa(lp3988
S'17.4967'
p3989
aS'78.3791'
p3990
aa(lp3991
S'17.4967'
p3992
aS'78.3791'
p3993
aa(lp3994
S'17.4967'
p3995
aS'78.3791'
p3996
aa(lp3997
S'17.4967'
p3998
aS'78.3791'
p3999
aa(lp4000
S'17.4967'
p4001
aS'78.3791'
p4002
aa(lp4003
S'17.4967'
p4004
aS'78.3791'
p4005
aa(lp4006
S'17.4967'
p4007
aS'78.3791'
p4008
aa(lp4009
S'17.4967'
p4010
aS'78.3791'
p4011
aa(lp4012
S'17.4967'
p4013
aS'78.3791'
p4014
aa(lp4015
S'17.4967'
p4016
aS'78.3791'
p4017
aa(lp4018
S'17.4967'
p4019
aS'78.3790'
p4020
aa(lp4021
S'17.4967'
p4022
aS'78.3790'
p4023
aa(lp4024
S'17.4967'
p4025
aS'78.3790'
p4026
aa(lp4027
S'17.4967'
p4028
aS'78.3790'
p4029
aa(lp4030
S'17.4967'
p4031
aS'78.3790'
p4032
aa(lp4033
S'17.4967'
p4034
aS'78.3790'
p4035
aa(lp4036
S'17.4967'
p4037
aS'78.3790'
p4038
aa(lp4039
S'17.4967'
p4040
aS'78.3790'
p4041
aa(lp4042
S'17.4967'
p4043
aS'78.3790'
p4044
aa(lp4045
S'17.4967'
p4046
aS'78.3790'
p4047
aa(lp4048
S'17.4967'
p4049
aS'78.3789'
p4050
aa(lp4051
S'17.4967'
p4052
aS'78.3789'
p4053
aa(lp4054
S'17.4967'
p4055
aS'78.3789'
p4056
aa(lp4057
S'17.4967'
p4058
aS'78.3789'
p4059
aa(lp4060
S'17.4967'
p4061
aS'78.3789'
p4062
aa(lp4063
S'17.4967'
p4064
aS'78.3789'
p4065
aa(lp4066
S'17.4967'
p4067
aS'78.3789'
p4068
aa(lp4069
S'17.4967'
p4070
aS'78.3789'
p4071
aa(lp4072
S'17.4967'
p4073
aS'78.3789'
p4074
aa(lp4075
S'17.4967'
p4076
aS'78.3789'
p4077
aa(lp4078
S'17.4967'
p4079
aS'78.3789'
p4080
aa(lp4081
S'17.4967'
p4082
aS'78.3788'
p4083
aa(lp4084
S'17.4967'
p4085
aS'78.3788'
p4086
aa(lp4087
S'17.4967'
p4088
aS'78.3788'
p4089
aa(lp4090
S'17.4967'
p4091
aS'78.3788'
p4092
aa(lp4093
S'17.4967'
p4094
aS'78.3788'
p4095
aa(lp4096
S'17.4967'
p4097
aS'78.3788'
p4098
aa(lp4099
S'17.4967'
p4100
aS'78.3788'
p4101
aa(lp4102
S'17.4967'
p4103
aS'78.3788'
p4104
aa(lp4105
S'17.4967'
p4106
aS'78.3788'
p4107
aa(lp4108
S'17.4967'
p4109
aS'78.3788'
p4110
aa(lp4111
S'17.4967'
p4112
aS'78.3787'
p4113
aa(lp4114
S'17.4967'
p4115
aS'78.3787'
p4116
aa(lp4117
S'17.4967'
p4118
aS'78.3787'
p4119
aa(lp4120
S'17.4967'
p4121
aS'78.3787'
p4122
aa(lp4123
S'17.4967'
p4124
aS'78.3787'
p4125
aa(lp4126
S'17.4967'
p4127
aS'78.3787'
p4128
aa(lp4129
S'17.4967'
p4130
aS'78.3787'
p4131
aa(lp4132
S'17.4967'
p4133
aS'78.3787'
p4134
aa(lp4135
S'17.4967'
p4136
aS'78.3787'
p4137
aa(lp4138
S'17.4967'
p4139
aS'78.3787'
p4140
aa(lp4141
S'17.4967'
p4142
aS'78.3787'
p4143
aa(lp4144
S'17.4967'
p4145
aS'78.3786'
p4146
aa(lp4147
S'17.4967'
p4148
aS'78.3786'
p4149
aa(lp4150
S'17.4967'
p4151
aS'78.3786'
p4152
aa(lp4153
S'17.4967'
p4154
aS'78.3786'
p4155
aa(lp4156
S'17.4967'
p4157
aS'78.3786'
p4158
aa(lp4159
S'17.4967'
p4160
aS'78.3786'
p4161
aa(lp4162
S'17.4967'
p4163
aS'78.3786'
p4164
aa(lp4165
S'17.4967'
p4166
aS'78.3786'
p4167
aa(lp4168
S'17.4967'
p4169
aS'78.3786'
p4170
aa(lp4171
S'17.4967'
p4172
aS'78.3786'
p4173
aa(lp4174
S'17.4967'
p4175
aS'78.3786'
p4176
aa(lp4177
S'17.4967'
p4178
aS'78.3785'
p4179
aa(lp4180
S'17.4967'
p4181
aS'78.3785'
p4182
aa(lp4183
S'17.4967'
p4184
aS'78.3785'
p4185
aa(lp4186
S'17.4967'
p4187
aS'78.3785'
p4188
aa(lp4189
S'17.4967'
p4190
aS'78.3785'
p4191
aa(lp4192
S'17.4967'
p4193
aS'78.3785'
p4194
aa(lp4195
S'17.4967'
p4196
aS'78.3785'
p4197
aa(lp4198
S'17.4967'
p4199
aS'78.3785'
p4200
aa(lp4201
S'17.4967'
p4202
aS'78.3785'
p4203
aa(lp4204
S'17.4967'
p4205
aS'78.3785'
p4206
aa(lp4207
S'17.4967'
p4208
aS'78.3784'
p4209
aa(lp4210
S'17.4967'
p4211
aS'78.3784'
p4212
aa(lp4213
S'17.4967'
p4214
aS'78.3784'
p4215
aa(lp4216
S'17.4967'
p4217
aS'78.3784'
p4218
aa(lp4219
S'17.4967'
p4220
aS'78.3784'
p4221
aa(lp4222
S'17.4967'
p4223
aS'78.3784'
p4224
aa(lp4225
S'17.4967'
p4226
aS'78.3784'
p4227
aa(lp4228
S'17.4967'
p4229
aS'78.3784'
p4230
aa(lp4231
S'17.4967'
p4232
aS'78.3784'
p4233
aa(lp4234
S'17.4967'
p4235
aS'78.3784'
p4236
aa(lp4237
S'17.4967'
p4238
aS'78.3784'
p4239
aa(lp4240
S'17.4967'
p4241
aS'78.3783'
p4242
aa(lp4243
S'17.4967'
p4244
aS'78.3783'
p4245
aa(lp4246
S'17.4967'
p4247
aS'78.3783'
p4248
aa(lp4249
S'17.4967'
p4250
aS'78.3783'
p4251
aa(lp4252
S'17.4967'
p4253
aS'78.3783'
p4254
aa(lp4255
S'17.4967'
p4256
aS'78.3783'
p4257
aa(lp4258
S'17.4967'
p4259
aS'78.3783'
p4260
aa(lp4261
S'17.4967'
p4262
aS'78.3783'
p4263
aa(lp4264
S'17.4967'
p4265
aS'78.3783'
p4266
aa(lp4267
S'17.4967'
p4268
aS'78.3783'
p4269
aa(lp4270
S'17.4967'
p4271
aS'78.3783'
p4272
aa(lp4273
S'17.4967'
p4274
aS'78.3782'
p4275
aa(lp4276
S'17.4967'
p4277
aS'78.3782'
p4278
aa(lp4279
S'17.4967'
p4280
aS'78.3782'
p4281
aa(lp4282
S'17.4967'
p4283
aS'78.3782'
p4284
aa(lp4285
S'17.4967'
p4286
aS'78.3782'
p4287
aa(lp4288
S'17.4967'
p4289
aS'78.3782'
p4290
aa(lp4291
S'17.4967'
p4292
aS'78.3782'
p4293
aa(lp4294
S'17.4967'
p4295
aS'78.3782'
p4296
aa(lp4297
S'17.4967'
p4298
aS'78.3782'
p4299
aa(lp4300
S'17.4967'
p4301
aS'78.3782'
p4302
aa(lp4303
S'17.4967'
p4304
aS'78.3781'
p4305
aa(lp4306
S'17.4967'
p4307
aS'78.3781'
p4308
aa(lp4309
S'17.4967'
p4310
aS'78.3781'
p4311
aa(lp4312
S'17.4967'
p4313
aS'78.3781'
p4314
aa(lp4315
S'17.4967'
p4316
aS'78.3781'
p4317
aa(lp4318
S'17.4967'
p4319
aS'78.3781'
p4320
aa(lp4321
S'17.4967'
p4322
aS'78.3781'
p4323
aa(lp4324
S'17.4967'
p4325
aS'78.3781'
p4326
aa(lp4327
S'17.4967'
p4328
aS'78.3781'
p4329
aa(lp4330
S'17.4967'
p4331
aS'78.3781'
p4332
aa(lp4333
S'17.4967'
p4334
aS'78.3781'
p4335
aa(lp4336
S'17.4967'
p4337
aS'78.3780'
p4338
aa(lp4339
S'17.4967'
p4340
aS'78.3780'
p4341
aa(lp4342
S'17.4967'
p4343
aS'78.3780'
p4344
aa(lp4345
S'17.4967'
p4346
aS'78.3780'
p4347
aa(lp4348
S'17.4967'
p4349
aS'78.3780'
p4350
aa(lp4351
S'17.4967'
p4352
aS'78.3780'
p4353
aa(lp4354
S'17.4967'
p4355
aS'78.3780'
p4356
aa(lp4357
S'17.4967'
p4358
aS'78.3780'
p4359
aa(lp4360
S'17.4967'
p4361
aS'78.3780'
p4362
aa(lp4363
S'17.4967'
p4364
aS'78.3780'
p4365
aa(lp4366
S'17.4967'
p4367
aS'78.3779'
p4368
aa(lp4369
S'17.4967'
p4370
aS'78.3779'
p4371
aa(lp4372
S'17.4967'
p4373
aS'78.3779'
p4374
aa(lp4375
S'17.4967'
p4376
aS'78.3779'
p4377
aa(lp4378
S'17.4967'
p4379
aS'78.3779'
p4380
aa(lp4381
S'17.4967'
p4382
aS'78.3779'
p4383
aa(lp4384
S'17.4967'
p4385
aS'78.3779'
p4386
aa(lp4387
S'17.4967'
p4388
aS'78.3779'
p4389
aa(lp4390
S'17.4967'
p4391
aS'78.3779'
p4392
aa(lp4393
S'17.4967'
p4394
aS'78.3779'
p4395
aa(lp4396
S'17.4967'
p4397
aS'78.3779'
p4398
aa(lp4399
S'17.4967'
p4400
aS'78.3778'
p4401
aa(lp4402
S'17.4967'
p4403
aS'78.3778'
p4404
aa(lp4405
S'17.4967'
p4406
aS'78.3778'
p4407
aa(lp4408
S'17.4967'
p4409
aS'78.3778'
p4410
aa(lp4411
S'17.4967'
p4412
aS'78.3778'
p4413
aa(lp4414
S'17.4967'
p4415
aS'78.3778'
p4416
aa(lp4417
S'17.4967'
p4418
aS'78.3778'
p4419
aa(lp4420
S'17.4967'
p4421
aS'78.3778'
p4422
aa(lp4423
S'17.4967'
p4424
aS'78.3778'
p4425
aa(lp4426
S'17.4967'
p4427
aS'78.3778'
p4428
aa(lp4429
S'17.4967'
p4430
aS'78.3778'
p4431
aa(lp4432
S'17.4967'
p4433
aS'78.3777'
p4434
aa(lp4435
S'17.4967'
p4436
aS'78.3777'
p4437
aa(lp4438
S'17.4967'
p4439
aS'78.3777'
p4440
aa(lp4441
S'17.4967'
p4442
aS'78.3777'
p4443
aa(lp4444
S'17.4967'
p4445
aS'78.3777'
p4446
aa(lp4447
S'17.4967'
p4448
aS'78.3777'
p4449
aa(lp4450
S'17.4967'
p4451
aS'78.3777'
p4452
aa(lp4453
S'17.4967'
p4454
aS'78.3777'
p4455
aa(lp4456
S'17.4967'
p4457
aS'78.3777'
p4458
aa(lp4459
S'17.4967'
p4460
aS'78.3777'
p4461
aa(lp4462
S'17.4967'
p4463
aS'78.3776'
p4464
aa(lp4465
S'17.4967'
p4466
aS'78.3776'
p4467
aa(lp4468
S'17.4967'
p4469
aS'78.3776'
p4470
aa(lp4471
S'17.4967'
p4472
aS'78.3776'
p4473
aa(lp4474
S'17.4967'
p4475
aS'78.3776'
p4476
aa(lp4477
S'17.4967'
p4478
aS'78.3776'
p4479
aa(lp4480
S'17.4967'
p4481
aS'78.3776'
p4482
aa(lp4483
S'17.4967'
p4484
aS'78.3776'
p4485
aa(lp4486
S'17.4967'
p4487
aS'78.3776'
p4488
aa(lp4489
S'17.4967'
p4490
aS'78.3776'
p4491
aa(lp4492
S'17.4967'
p4493
aS'78.3776'
p4494
aa(lp4495
S'17.4967'
p4496
aS'78.3775'
p4497
aa(lp4498
S'17.4967'
p4499
aS'78.3775'
p4500
aa(lp4501
S'17.4967'
p4502
aS'78.3775'
p4503
aa(lp4504
S'17.4967'
p4505
aS'78.3775'
p4506
aa(lp4507
S'17.4967'
p4508
aS'78.3775'
p4509
aa(lp4510
S'17.4967'
p4511
aS'78.3775'
p4512
aa(lp4513
S'17.4967'
p4514
aS'78.3775'
p4515
aa(lp4516
S'17.4967'
p4517
aS'78.3775'
p4518
aa(lp4519
S'17.4967'
p4520
aS'78.3775'
p4521
aa(lp4522
S'17.4967'
p4523
aS'78.3775'
p4524
aa(lp4525
S'17.4967'
p4526
aS'78.3775'
p4527
aa(lp4528
S'17.4967'
p4529
aS'78.3774'
p4530
aa(lp4531
S'17.4967'
p4532
aS'78.3774'
p4533
aa(lp4534
S'17.4967'
p4535
aS'78.3774'
p4536
aa(lp4537
S'17.4967'
p4538
aS'78.3774'
p4539
aa(lp4540
S'17.4967'
p4541
aS'78.3774'
p4542
aa(lp4543
S'17.4967'
p4544
aS'78.3774'
p4545
aa(lp4546
S'17.4967'
p4547
aS'78.3774'
p4548
aa(lp4549
S'17.4967'
p4550
aS'78.3774'
p4551
aa(lp4552
S'17.4967'
p4553
aS'78.3774'
p4554
aa(lp4555
S'17.4967'
p4556
aS'78.3774'
p4557
aa(lp4558
S'17.4967'
p4559
aS'78.3773'
p4560
aa(lp4561
S'17.4967'
p4562
aS'78.3773'
p4563
aa(lp4564
S'17.4967'
p4565
aS'78.3773'
p4566
aa(lp4567
S'17.4967'
p4568
aS'78.3773'
p4569
aa(lp4570
S'17.4967'
p4571
aS'78.3773'
p4572
aa(lp4573
S'17.4967'
p4574
aS'78.3773'
p4575
aa(lp4576
S'17.4967'
p4577
aS'78.3773'
p4578
aa(lp4579
S'17.4967'
p4580
aS'78.3773'
p4581
aa(lp4582
S'17.4967'
p4583
aS'78.3773'
p4584
aa(lp4585
S'17.4967'
p4586
aS'78.3773'
p4587
aa(lp4588
S'17.4967'
p4589
aS'78.3773'
p4590
aa(lp4591
S'17.4967'
p4592
aS'78.3772'
p4593
aa(lp4594
S'17.4967'
p4595
aS'78.3772'
p4596
aa(lp4597
S'17.4967'
p4598
aS'78.3772'
p4599
aa(lp4600
S'17.4967'
p4601
aS'78.3772'
p4602
aa(lp4603
S'17.4967'
p4604
aS'78.3772'
p4605
aa(lp4606
S'17.4967'
p4607
aS'78.3772'
p4608
aa(lp4609
S'17.4967'
p4610
aS'78.3772'
p4611
aa(lp4612
S'17.4967'
p4613
aS'78.3772'
p4614
aa(lp4615
S'17.4967'
p4616
aS'78.3772'
p4617
aa(lp4618
S'17.4967'
p4619
aS'78.3772'
p4620
aa(lp4621
S'17.4967'
p4622
aS'78.3771'
p4623
aa(lp4624
S'17.4967'
p4625
aS'78.3771'
p4626
aa(lp4627
S'17.4967'
p4628
aS'78.3771'
p4629
aa(lp4630
S'17.4967'
p4631
aS'78.3771'
p4632
aa(lp4633
S'17.4967'
p4634
aS'78.3771'
p4635
aa(lp4636
S'17.4967'
p4637
aS'78.3771'
p4638
aa(lp4639
S'17.4967'
p4640
aS'78.3771'
p4641
aa(lp4642
S'17.4967'
p4643
aS'78.3771'
p4644
aa(lp4645
S'17.4967'
p4646
aS'78.3771'
p4647
aa(lp4648
S'17.4967'
p4649
aS'78.3771'
p4650
aa(lp4651
S'17.4967'
p4652
aS'78.3771'
p4653
aa(lp4654
S'17.4967'
p4655
aS'78.3770'
p4656
aa(lp4657
S'17.4967'
p4658
aS'78.3770'
p4659
aa(lp4660
S'17.4967'
p4661
aS'78.3770'
p4662
aa(lp4663
S'17.4967'
p4664
aS'78.3770'
p4665
aa(lp4666
S'17.4967'
p4667
aS'78.3770'
p4668
aa(lp4669
S'17.4967'
p4670
aS'78.3770'
p4671
aa(lp4672
S'17.4967'
p4673
aS'78.3770'
p4674
aa(lp4675
S'17.4967'
p4676
aS'78.3770'
p4677
aa(lp4678
S'17.4967'
p4679
aS'78.3770'
p4680
aa(lp4681
S'17.4967'
p4682
aS'78.3770'
p4683
aa(lp4684
S'17.4967'
p4685
aS'78.3770'
p4686
aa(lp4687
S'17.4967'
p4688
aS'78.3769'
p4689
aa(lp4690
S'17.4967'
p4691
aS'78.3769'
p4692
aa(lp4693
S'17.4967'
p4694
aS'78.3769'
p4695
aa(lp4696
S'17.4967'
p4697
aS'78.3769'
p4698
aa(lp4699
S'17.4967'
p4700
aS'78.3769'
p4701
aa(lp4702
S'17.4967'
p4703
aS'78.3769'
p4704
aa(lp4705
S'17.4967'
p4706
aS'78.3769'
p4707
aa(lp4708
S'17.4967'
p4709
aS'78.3769'
p4710
aa(lp4711
S'17.4967'
p4712
aS'78.3769'
p4713
aa(lp4714
S'17.4967'
p4715
aS'78.3769'
p4716
aa(lp4717
S'17.4967'
p4718
aS'78.3768'
p4719
aa(lp4720
S'17.4967'
p4721
aS'78.3768'
p4722
aa(lp4723
S'17.4967'
p4724
aS'78.3768'
p4725
aa(lp4726
S'17.4967'
p4727
aS'78.3768'
p4728
aa(lp4729
S'17.4967'
p4730
aS'78.3768'
p4731
aa(lp4732
S'17.4967'
p4733
aS'78.3768'
p4734
aa(lp4735
S'17.4967'
p4736
aS'78.3768'
p4737
aa(lp4738
S'17.4967'
p4739
aS'78.3768'
p4740
aa(lp4741
S'17.4967'
p4742
aS'78.3768'
p4743
aa(lp4744
S'17.4967'
p4745
aS'78.3768'
p4746
aa(lp4747
S'17.4967'
p4748
aS'78.3768'
p4749
aa(lp4750
S'17.4967'
p4751
aS'78.3767'
p4752
aa(lp4753
S'17.4967'
p4754
aS'78.3767'
p4755
aa(lp4756
S'17.4967'
p4757
aS'78.3767'
p4758
aa(lp4759
S'17.4967'
p4760
aS'78.3767'
p4761
aa(lp4762
S'17.4967'
p4763
aS'78.3767'
p4764
aa(lp4765
S'17.4967'
p4766
aS'78.3767'
p4767
aa(lp4768
S'17.4967'
p4769
aS'78.3767'
p4770
aa(lp4771
S'17.4967'
p4772
aS'78.3767'
p4773
aa(lp4774
S'17.4967'
p4775
aS'78.3767'
p4776
aa(lp4777
S'17.4967'
p4778
aS'78.3767'
p4779
aa(lp4780
S'17.4966'
p4781
aS'78.3766'
p4782
aa(lp4783
S'17.4966'
p4784
aS'78.3766'
p4785
aa(lp4786
S'17.4966'
p4787
aS'78.3766'
p4788
aa(lp4789
S'17.4966'
p4790
aS'78.3766'
p4791
aa(lp4792
S'17.4966'
p4793
aS'78.3766'
p4794
aa(lp4795
S'17.4966'
p4796
aS'78.3766'
p4797
aa(lp4798
S'17.4966'
p4799
aS'78.3766'
p4800
aa(lp4801
S'17.4966'
p4802
aS'78.3766'
p4803
aa(lp4804
S'17.4966'
p4805
aS'78.3766'
p4806
aa(lp4807
S'17.4966'
p4808
aS'78.3766'
p4809
aa(lp4810
S'17.4966'
p4811
aS'78.3766'
p4812
aa(lp4813
S'17.4966'
p4814
aS'78.3765'
p4815
aa(lp4816
S'17.4966'
p4817
aS'78.3765'
p4818
aa(lp4819
S'17.4966'
p4820
aS'78.3765'
p4821
aa(lp4822
S'17.4966'
p4823
aS'78.3765'
p4824
aa(lp4825
S'17.4966'
p4826
aS'78.3765'
p4827
aa(lp4828
S'17.4966'
p4829
aS'78.3765'
p4830
aa(lp4831
S'17.4966'
p4832
aS'78.3765'
p4833
aa(lp4834
S'17.4966'
p4835
aS'78.3765'
p4836
aa(lp4837
S'17.4966'
p4838
aS'78.3765'
p4839
aa(lp4840
S'17.4966'
p4841
aS'78.3765'
p4842
aa(lp4843
S'17.4966'
p4844
aS'78.3765'
p4845
aa(lp4846
S'17.4966'
p4847
aS'78.3764'
p4848
aa(lp4849
S'17.4966'
p4850
aS'78.3764'
p4851
aa(lp4852
S'17.4966'
p4853
aS'78.3764'
p4854
aa(lp4855
S'17.4966'
p4856
aS'78.3764'
p4857
aa(lp4858
S'17.4966'
p4859
aS'78.3764'
p4860
aa(lp4861
S'17.4966'
p4862
aS'78.3764'
p4863
aa(lp4864
S'17.4966'
p4865
aS'78.3764'
p4866
aa(lp4867
S'17.4966'
p4868
aS'78.3764'
p4869
aa(lp4870
S'17.4966'
p4871
aS'78.3764'
p4872
aa(lp4873
S'17.4966'
p4874
aS'78.3764'
p4875
aa(lp4876
S'17.4966'
p4877
aS'78.3763'
p4878
aa(lp4879
S'17.4966'
p4880
aS'78.3763'
p4881
aa(lp4882
S'17.4966'
p4883
aS'78.3763'
p4884
aa(lp4885
S'17.4966'
p4886
aS'78.3763'
p4887
aa(lp4888
S'17.4966'
p4889
aS'78.3763'
p4890
aa(lp4891
S'17.4966'
p4892
aS'78.3763'
p4893
aa(lp4894
S'17.4966'
p4895
aS'78.3763'
p4896
aa(lp4897
S'17.4966'
p4898
aS'78.3763'
p4899
aa(lp4900
S'17.4966'
p4901
aS'78.3763'
p4902
aa(lp4903
S'17.4966'
p4904
aS'78.3763'
p4905
aa(lp4906
S'17.4966'
p4907
aS'78.3763'
p4908
aa(lp4909
S'17.4966'
p4910
aS'78.3762'
p4911
aa(lp4912
S'17.4966'
p4913
aS'78.3762'
p4914
aa(lp4915
S'17.4966'
p4916
aS'78.3762'
p4917
aa(lp4918
S'17.4966'
p4919
aS'78.3762'
p4920
aa(lp4921
S'17.4966'
p4922
aS'78.3762'
p4923
aa(lp4924
S'17.4966'
p4925
aS'78.3762'
p4926
aa(lp4927
S'17.4966'
p4928
aS'78.3762'
p4929
aa(lp4930
S'17.4966'
p4931
aS'78.3762'
p4932
aa(lp4933
S'17.4966'
p4934
aS'78.3762'
p4935
aa(lp4936
S'17.4966'
p4937
aS'78.3762'
p4938
aa(lp4939
S'17.4966'
p4940
aS'78.3762'
p4941
aa(lp4942
S'17.4966'
p4943
aS'78.3761'
p4944
aa(lp4945
S'17.4966'
p4946
aS'78.3761'
p4947
aa(lp4948
S'17.4966'
p4949
aS'78.3761'
p4950
aa(lp4951
S'17.4966'
p4952
aS'78.3761'
p4953
aa(lp4954
S'17.4966'
p4955
aS'78.3761'
p4956
aa(lp4957
S'17.4966'
p4958
aS'78.3761'
p4959
aa(lp4960
S'17.4966'
p4961
aS'78.3761'
p4962
aa(lp4963
S'17.4966'
p4964
aS'78.3761'
p4965
aa(lp4966
S'17.4966'
p4967
aS'78.3761'
p4968
aa(lp4969
S'17.4966'
p4970
aS'78.3761'
p4971
aa(lp4972
S'17.4966'
p4973
aS'78.3760'
p4974
aa(lp4975
S'17.4966'
p4976
aS'78.3760'
p4977
aa(lp4978
S'17.4966'
p4979
aS'78.3760'
p4980
aa(lp4981
S'17.4966'
p4982
aS'78.3760'
p4983
aa(lp4984
S'17.4966'
p4985
aS'78.3760'
p4986
aa(lp4987
S'17.4966'
p4988
aS'78.3760'
p4989
aa(lp4990
S'17.4966'
p4991
aS'78.3760'
p4992
aa(lp4993
S'17.4966'
p4994
aS'78.3760'
p4995
aa(lp4996
S'17.4966'
p4997
aS'78.3760'
p4998
aa(lp4999
S'17.4966'
p5000
aS'78.3760'
p5001
aa(lp5002
S'17.4966'
p5003
aS'78.3760'
p5004
aa(lp5005
S'17.4966'
p5006
aS'78.3759'
p5007
aa(lp5008
S'17.4966'
p5009
aS'78.3759'
p5010
aa(lp5011
S'17.4966'
p5012
aS'78.3759'
p5013
aa(lp5014
S'17.4966'
p5015
aS'78.3759'
p5016
aa(lp5017
S'17.4966'
p5018
aS'78.3759'
p5019
aa(lp5020
S'17.4966'
p5021
aS'78.3759'
p5022
aa(lp5023
S'17.4966'
p5024
aS'78.3759'
p5025
aa(lp5026
S'17.4966'
p5027
aS'78.3759'
p5028
aa(lp5029
S'17.4966'
p5030
aS'78.3759'
p5031
aa(lp5032
S'17.4966'
p5033
aS'78.3759'
p5034
aa(lp5035
S'17.4966'
p5036
aS'78.3758'
p5037
aa(lp5038
S'17.4966'
p5039
aS'78.3758'
p5040
aa(lp5041
S'17.4966'
p5042
aS'78.3758'
p5043
aa(lp5044
S'17.4966'
p5045
aS'78.3758'
p5046
aa(lp5047
S'17.4966'
p5048
aS'78.3758'
p5049
aa(lp5050
S'17.4966'
p5051
aS'78.3758'
p5052
aa(lp5053
S'17.4966'
p5054
aS'78.3758'
p5055
aa(lp5056
S'17.4966'
p5057
aS'78.3758'
p5058
aa(lp5059
S'17.4966'
p5060
aS'78.3758'
p5061
aa(lp5062
S'17.4966'
p5063
aS'78.3758'
p5064
aa(lp5065
S'17.4966'
p5066
aS'78.3758'
p5067
aa(lp5068
S'17.4966'
p5069
aS'78.3757'
p5070
aa(lp5071
S'17.4966'
p5072
aS'78.3757'
p5073
aa(lp5074
S'17.4966'
p5075
aS'78.3757'
p5076
aa(lp5077
S'17.4966'
p5078
aS'78.3757'
p5079
aa(lp5080
S'17.4966'
p5081
aS'78.3757'
p5082
aa(lp5083
S'17.4966'
p5084
aS'78.3757'
p5085
aa(lp5086
S'17.4966'
p5087
aS'78.3757'
p5088
aa(lp5089
S'17.4966'
p5090
aS'78.3757'
p5091
aa(lp5092
S'17.4966'
p5093
aS'78.3757'
p5094
aa(lp5095
S'17.4966'
p5096
aS'78.3757'
p5097
aa(lp5098
S'17.4966'
p5099
aS'78.3757'
p5100
aa(lp5101
S'17.4966'
p5102
aS'78.3756'
p5103
aa(lp5104
S'17.4966'
p5105
aS'78.3756'
p5106
aa(lp5107
S'17.4966'
p5108
aS'78.3756'
p5109
aa(lp5110
S'17.4966'
p5111
aS'78.3756'
p5112
aa(lp5113
S'17.4966'
p5114
aS'78.3756'
p5115
aa(lp5116
S'17.4966'
p5117
aS'78.3756'
p5118
aa(lp5119
S'17.4966'
p5120
aS'78.3756'
p5121
aa(lp5122
S'17.4966'
p5123
aS'78.3756'
p5124
aa(lp5125
S'17.4966'
p5126
aS'78.3756'
p5127
aa(lp5128
S'17.4966'
p5129
aS'78.3756'
p5130
aa(lp5131
S'17.4966'
p5132
aS'78.3755'
p5133
aa(lp5134
S'17.4966'
p5135
aS'78.3755'
p5136
aa(lp5137
S'17.4966'
p5138
aS'78.3755'
p5139
aa(lp5140
S'17.4966'
p5141
aS'78.3755'
p5142
aa(lp5143
S'17.4966'
p5144
aS'78.3755'
p5145
aa(lp5146
S'17.4966'
p5147
aS'78.3755'
p5148
aa(lp5149
S'17.4966'
p5150
aS'78.3755'
p5151
aa(lp5152
S'17.4966'
p5153
aS'78.3755'
p5154
aa(lp5155
S'17.4966'
p5156
aS'78.3755'
p5157
aa(lp5158
S'17.4966'
p5159
aS'78.3755'
p5160
aa(lp5161
S'17.4966'
p5162
aS'78.3755'
p5163
aa(lp5164
S'17.4966'
p5165
aS'78.3754'
p5166
aa(lp5167
S'17.4966'
p5168
aS'78.3754'
p5169
aa(lp5170
S'17.4966'
p5171
aS'78.3754'
p5172
aa(lp5173
S'17.4966'
p5174
aS'78.3754'
p5175
aa(lp5176
S'17.4966'
p5177
aS'78.3754'
p5178
aa(lp5179
S'17.4966'
p5180
aS'78.3754'
p5181
aa(lp5182
S'17.4966'
p5183
aS'78.3754'
p5184
aa(lp5185
S'17.4966'
p5186
aS'78.3754'
p5187
aa(lp5188
S'17.4966'
p5189
aS'78.3754'
p5190
aa(lp5191
S'17.4966'
p5192
aS'78.3754'
p5193
aa(lp5194
S'17.4966'
p5195
aS'78.3753'
p5196
aa(lp5197
S'17.4966'
p5198
aS'78.3753'
p5199
aa(lp5200
S'17.4966'
p5201
aS'78.3753'
p5202
aa(lp5203
S'17.4966'
p5204
aS'78.3753'
p5205
aa(lp5206
S'17.4966'
p5207
aS'78.3753'
p5208
aa(lp5209
S'17.4966'
p5210
aS'78.3753'
p5211
aa(lp5212
S'17.4966'
p5213
aS'78.3753'
p5214
aa(lp5215
S'17.4966'
p5216
aS'78.3753'
p5217
aa(lp5218
S'17.4966'
p5219
aS'78.3753'
p5220
aa(lp5221
S'17.4966'
p5222
aS'78.3753'
p5223
aa(lp5224
S'17.4966'
p5225
aS'78.3753'
p5226
aa(lp5227
S'17.4966'
p5228
aS'78.3752'
p5229
aa(lp5230
S'17.4966'
p5231
aS'78.3752'
p5232
aa(lp5233
S'17.4966'
p5234
aS'78.3752'
p5235
aa(lp5236
S'17.4966'
p5237
aS'78.3752'
p5238
aa(lp5239
S'17.4966'
p5240
aS'78.3752'
p5241
aa(lp5242
S'17.4966'
p5243
aS'78.3752'
p5244
aa(lp5245
S'17.4966'
p5246
aS'78.3752'
p5247
aa(lp5248
S'17.4966'
p5249
aS'78.3752'
p5250
aa(lp5251
S'17.4966'
p5252
aS'78.3752'
p5253
aa(lp5254
S'17.4966'
p5255
aS'78.3752'
p5256
aa(lp5257
S'17.4966'
p5258
aS'78.3752'
p5259
aa(lp5260
S'17.4966'
p5261
aS'78.3751'
p5262
aa(lp5263
S'17.4966'
p5264
aS'78.3751'
p5265
aa(lp5266
S'17.4966'
p5267
aS'78.3751'
p5268
aa(lp5269
S'17.4966'
p5270
aS'78.3751'
p5271
aa(lp5272
S'17.4966'
p5273
aS'78.3751'
p5274
aa(lp5275
S'17.4966'
p5276
aS'78.3751'
p5277
aa(lp5278
S'17.4966'
p5279
aS'78.3751'
p5280
aa(lp5281
S'17.4966'
p5282
aS'78.3751'
p5283
aa(lp5284
S'17.4966'
p5285
aS'78.3751'
p5286
aa(lp5287
S'17.4966'
p5288
aS'78.3751'
p5289
aa(lp5290
S'17.4966'
p5291
aS'78.3750'
p5292
aa(lp5293
S'17.4966'
p5294
aS'78.3750'
p5295
aa(lp5296
S'17.4966'
p5297
aS'78.3750'
p5298
aa(lp5299
S'17.4966'
p5300
aS'78.3750'
p5301
aa(lp5302
S'17.4966'
p5303
aS'78.3750'
p5304
aa(lp5305
S'17.4966'
p5306
aS'78.3750'
p5307
aa(lp5308
S'17.4966'
p5309
aS'78.3750'
p5310
aa(lp5311
S'17.4966'
p5312
aS'78.3750'
p5313
aa(lp5314
S'17.4966'
p5315
aS'78.3750'
p5316
aa(lp5317
S'17.4966'
p5318
aS'78.3750'
p5319
aa(lp5320
S'17.4966'
p5321
aS'78.3750'
p5322
aa(lp5323
S'17.4966'
p5324
aS'78.3749'
p5325
aa(lp5326
S'17.4966'
p5327
aS'78.3749'
p5328
aa(lp5329
S'17.4966'
p5330
aS'78.3749'
p5331
aa(lp5332
S'17.4966'
p5333
aS'78.3749'
p5334
aa(lp5335
S'17.4966'
p5336
aS'78.3749'
p5337
aa(lp5338
S'17.4966'
p5339
aS'78.3749'
p5340
aa(lp5341
S'17.4966'
p5342
aS'78.3749'
p5343
aa(lp5344
S'17.4966'
p5345
aS'78.3749'
p5346
aa(lp5347
S'17.4966'
p5348
aS'78.3749'
p5349
aa(lp5350
S'17.4966'
p5351
aS'78.3749'
p5352
aa(lp5353
S'17.4966'
p5354
aS'78.3749'
p5355
aa(lp5356
S'17.4966'
p5357
aS'78.3748'
p5358
aa(lp5359
S'17.4966'
p5360
aS'78.3748'
p5361
aa(lp5362
S'17.4966'
p5363
aS'78.3748'
p5364
aa(lp5365
S'17.4966'
p5366
aS'78.3748'
p5367
aa(lp5368
S'17.4966'
p5369
aS'78.3748'
p5370
aa(lp5371
S'17.4966'
p5372
aS'78.3748'
p5373
aa(lp5374
S'17.4966'
p5375
aS'78.3748'
p5376
aa(lp5377
S'17.4966'
p5378
aS'78.3748'
p5379
aa(lp5380
S'17.4966'
p5381
aS'78.3748'
p5382
aa(lp5383
S'17.4966'
p5384
aS'78.3748'
p5385
aa(lp5386
S'17.4966'
p5387
aS'78.3747'
p5388
aa(lp5389
S'17.4966'
p5390
aS'78.3747'
p5391
aa(lp5392
S'17.4966'
p5393
aS'78.3747'
p5394
aa(lp5395
S'17.4966'
p5396
aS'78.3747'
p5397
aa(lp5398
S'17.4966'
p5399
aS'78.3747'
p5400
aa(lp5401
S'17.4966'
p5402
aS'78.3747'
p5403
aa(lp5404
S'17.4966'
p5405
aS'78.3747'
p5406
aa(lp5407
S'17.4966'
p5408
aS'78.3747'
p5409
aa(lp5410
S'17.4966'
p5411
aS'78.3747'
p5412
aa(lp5413
S'17.4966'
p5414
aS'78.3747'
p5415
aa(lp5416
S'17.4966'
p5417
aS'78.3747'
p5418
aa(lp5419
S'17.4966'
p5420
aS'78.3746'
p5421
aa(lp5422
S'17.4966'
p5423
aS'78.3746'
p5424
aa(lp5425
S'17.4966'
p5426
aS'78.3746'
p5427
aa(lp5428
S'17.4966'
p5429
aS'78.3746'
p5430
aa(lp5431
S'17.4966'
p5432
aS'78.3746'
p5433
aa(lp5434
S'17.4966'
p5435
aS'78.3746'
p5436
aa(lp5437
S'17.4966'
p5438
aS'78.3746'
p5439
aa(lp5440
S'17.4966'
p5441
aS'78.3746'
p5442
aa(lp5443
S'17.4966'
p5444
aS'78.3746'
p5445
aa(lp5446
S'17.4966'
p5447
aS'78.3746'
p5448
aa(lp5449
S'17.4966'
p5450
aS'78.3745'
p5451
aa(lp5452
S'17.4966'
p5453
aS'78.3745'
p5454
aa(lp5455
S'17.4966'
p5456
aS'78.3745'
p5457
aa(lp5458
S'17.4966'
p5459
aS'78.3745'
p5460
aa(lp5461
S'17.4966'
p5462
aS'78.3745'
p5463
aa(lp5464
S'17.4966'
p5465
aS'78.3745'
p5466
aa(lp5467
S'17.4966'
p5468
aS'78.3745'
p5469
aa(lp5470
S'17.4966'
p5471
aS'78.3745'
p5472
aa(lp5473
S'17.4966'
p5474
aS'78.3745'
p5475
aa(lp5476
S'17.4966'
p5477
aS'78.3745'
p5478
aa(lp5479
S'17.4966'
p5480
aS'78.3745'
p5481
aa(lp5482
S'17.4966'
p5483
aS'78.3744'
p5484
aa(lp5485
S'17.4966'
p5486
aS'78.3744'
p5487
aa(lp5488
S'17.4966'
p5489
aS'78.3744'
p5490
aa(lp5491
S'17.4966'
p5492
aS'78.3744'
p5493
aa(lp5494
S'17.4966'
p5495
aS'78.3744'
p5496
aa(lp5497
S'17.4966'
p5498
aS'78.3744'
p5499
aa(lp5500
S'17.4966'
p5501
aS'78.3744'
p5502
aa(lp5503
S'17.4966'
p5504
aS'78.3744'
p5505
aa(lp5506
S'17.4966'
p5507
aS'78.3744'
p5508
aa(lp5509
S'17.4966'
p5510
aS'78.3744'
p5511
aa(lp5512
S'17.4966'
p5513
aS'78.3744'
p5514
aa(lp5515
S'17.4966'
p5516
aS'78.3743'
p5517
aa(lp5518
S'17.4966'
p5519
aS'78.3743'
p5520
aa(lp5521
S'17.4966'
p5522
aS'78.3743'
p5523
aa(lp5524
S'17.4966'
p5525
aS'78.3743'
p5526
aa(lp5527
S'17.4966'
p5528
aS'78.3743'
p5529
aa(lp5530
S'17.4966'
p5531
aS'78.3743'
p5532
aa(lp5533
S'17.4966'
p5534
aS'78.3743'
p5535
aa(lp5536
S'17.4966'
p5537
aS'78.3743'
p5538
aa(lp5539
S'17.4966'
p5540
aS'78.3743'
p5541
aa(lp5542
S'17.4966'
p5543
aS'78.3743'
p5544
aa(lp5545
S'17.4966'
p5546
aS'78.3742'
p5547
aa(lp5548
S'17.4966'
p5549
aS'78.3742'
p5550
aa(lp5551
S'17.4966'
p5552
aS'78.3742'
p5553
aa(lp5554
S'17.4966'
p5555
aS'78.3742'
p5556
aa(lp5557
S'17.4966'
p5558
aS'78.3742'
p5559
aa(lp5560
S'17.4966'
p5561
aS'78.3742'
p5562
aa(lp5563
S'17.4966'
p5564
aS'78.3742'
p5565
aa(lp5566
S'17.4966'
p5567
aS'78.3742'
p5568
aa(lp5569
S'17.4966'
p5570
aS'78.3742'
p5571
aa(lp5572
S'17.4966'
p5573
aS'78.3742'
p5574
aa(lp5575
S'17.4966'
p5576
aS'78.3742'
p5577
aa(lp5578
S'17.4966'
p5579
aS'78.3741'
p5580
aa(lp5581
S'17.4966'
p5582
aS'78.3741'
p5583
aa(lp5584
S'17.4966'
p5585
aS'78.3741'
p5586
aa(lp5587
S'17.4966'
p5588
aS'78.3741'
p5589
aa(lp5590
S'17.4966'
p5591
aS'78.3741'
p5592
aa(lp5593
S'17.4966'
p5594
aS'78.3741'
p5595
aa(lp5596
S'17.4966'
p5597
aS'78.3741'
p5598
aa(lp5599
S'17.4966'
p5600
aS'78.3741'
p5601
aa(lp5602
S'17.4966'
p5603
aS'78.3741'
p5604
aa(lp5605
S'17.4966'
p5606
aS'78.3741'
p5607
aa(lp5608
S'17.4966'
p5609
aS'78.3741'
p5610
aa(lp5611
S'17.4966'
p5612
aS'78.3740'
p5613
aa(lp5614
S'17.4966'
p5615
aS'78.3740'
p5616
aa(lp5617
S'17.4966'
p5618
aS'78.3740'
p5619
aa(lp5620
S'17.4966'
p5621
aS'78.3740'
p5622
aa(lp5623
S'17.4966'
p5624
aS'78.3740'
p5625
aa(lp5626
S'17.4966'
p5627
aS'78.3740'
p5628
aa(lp5629
S'17.4966'
p5630
aS'78.3740'
p5631
aa(lp5632
S'17.4966'
p5633
aS'78.3740'
p5634
aa(lp5635
S'17.4966'
p5636
aS'78.3740'
p5637
aa(lp5638
S'17.4966'
p5639
aS'78.3740'
p5640
aa(lp5641
S'17.4966'
p5642
aS'78.3739'
p5643
aa(lp5644
S'17.4966'
p5645
aS'78.3739'
p5646
aa(lp5647
S'17.4966'
p5648
aS'78.3739'
p5649
aa(lp5650
S'17.4966'
p5651
aS'78.3739'
p5652
aa(lp5653
S'17.4966'
p5654
aS'78.3739'
p5655
aa(lp5656
S'17.4966'
p5657
aS'78.3739'
p5658
aa(lp5659
S'17.4966'
p5660
aS'78.3739'
p5661
aa(lp5662
S'17.4966'
p5663
aS'78.3739'
p5664
aa(lp5665
S'17.4966'
p5666
aS'78.3739'
p5667
aa(lp5668
S'17.4966'
p5669
aS'78.3739'
p5670
aa(lp5671
S'17.4966'
p5672
aS'78.3739'
p5673
aa(lp5674
S'17.4966'
p5675
aS'78.3738'
p5676
aa(lp5677
S'17.4966'
p5678
aS'78.3738'
p5679
aa(lp5680
S'17.4966'
p5681
aS'78.3738'
p5682
aa(lp5683
S'17.4966'
p5684
aS'78.3738'
p5685
aa(lp5686
S'17.4966'
p5687
aS'78.3738'
p5688
aa(lp5689
S'17.4966'
p5690
aS'78.3738'
p5691
aa(lp5692
S'17.4966'
p5693
aS'78.3738'
p5694
aa(lp5695
S'17.4966'
p5696
aS'78.3738'
p5697
aa(lp5698
S'17.4966'
p5699
aS'78.3738'
p5700
aa(lp5701
S'17.4966'
p5702
aS'78.3738'
p5703
aa(lp5704
S'17.4966'
p5705
aS'78.3737'
p5706
aa(lp5707
S'17.4966'
p5708
aS'78.3737'
p5709
aa(lp5710
S'17.4966'
p5711
aS'78.3737'
p5712
aa(lp5713
S'17.4966'
p5714
aS'78.3737'
p5715
aa(lp5716
S'17.4966'
p5717
aS'78.3737'
p5718
aa(lp5719
S'17.4966'
p5720
aS'78.3737'
p5721
aa(lp5722
S'17.4966'
p5723
aS'78.3737'
p5724
aa(lp5725
S'17.4966'
p5726
aS'78.3737'
p5727
aa(lp5728
S'17.4966'
p5729
aS'78.3737'
p5730
aa(lp5731
S'17.4966'
p5732
aS'78.3737'
p5733
aa(lp5734
S'17.4966'
p5735
aS'78.3737'
p5736
aa(lp5737
S'17.4966'
p5738
aS'78.3736'
p5739
aa(lp5740
S'17.4966'
p5741
aS'78.3736'
p5742
aa(lp5743
S'17.4966'
p5744
aS'78.3736'
p5745
aa(lp5746
S'17.4966'
p5747
aS'78.3736'
p5748
aa(lp5749
S'17.4966'
p5750
aS'78.3736'
p5751
aa(lp5752
S'17.4966'
p5753
aS'78.3736'
p5754
aa(lp5755
S'17.4966'
p5756
aS'78.3736'
p5757
aa(lp5758
S'17.4966'
p5759
aS'78.3736'
p5760
aa(lp5761
S'17.4966'
p5762
aS'78.3736'
p5763
aa(lp5764
S'17.4966'
p5765
aS'78.3736'
p5766
aa(lp5767
S'17.4966'
p5768
aS'78.3736'
p5769
aa(lp5770
S'17.4966'
p5771
aS'78.3735'
p5772
aa(lp5773
S'17.4966'
p5774
aS'78.3735'
p5775
aa(lp5776
S'17.4966'
p5777
aS'78.3735'
p5778
aa(lp5779
S'17.4966'
p5780
aS'78.3735'
p5781
aa(lp5782
S'17.4966'
p5783
aS'78.3735'
p5784
aa(lp5785
S'17.4966'
p5786
aS'78.3735'
p5787
aa(lp5788
S'17.4966'
p5789
aS'78.3735'
p5790
aa(lp5791
S'17.4966'
p5792
aS'78.3735'
p5793
aa(lp5794
S'17.4966'
p5795
aS'78.3735'
p5796
aa(lp5797
S'17.4966'
p5798
aS'78.3735'
p5799
aa(lp5800
S'17.4966'
p5801
aS'78.3734'
p5802
aa(lp5803
S'17.4966'
p5804
aS'78.3734'
p5805
aa(lp5806
S'17.4966'
p5807
aS'78.3734'
p5808
aa(lp5809
S'17.4966'
p5810
aS'78.3734'
p5811
aa(lp5812
S'17.4966'
p5813
aS'78.3734'
p5814
aa(lp5815
S'17.4966'
p5816
aS'78.3734'
p5817
aa(lp5818
S'17.4966'
p5819
aS'78.3734'
p5820
aa(lp5821
S'17.4966'
p5822
aS'78.3734'
p5823
aa(lp5824
S'17.4966'
p5825
aS'78.3734'
p5826
aa(lp5827
S'17.4966'
p5828
aS'78.3734'
p5829
aa(lp5830
S'17.4966'
p5831
aS'78.3734'
p5832
aa(lp5833
S'17.4966'
p5834
aS'78.3733'
p5835
aa(lp5836
S'17.4966'
p5837
aS'78.3733'
p5838
aa(lp5839
S'17.4966'
p5840
aS'78.3733'
p5841
aa(lp5842
S'17.4966'
p5843
aS'78.3733'
p5844
aa(lp5845
S'17.4966'
p5846
aS'78.3733'
p5847
aa(lp5848
S'17.4966'
p5849
aS'78.3733'
p5850
aa(lp5851
S'17.4966'
p5852
aS'78.3733'
p5853
aa(lp5854
S'17.4966'
p5855
aS'78.3733'
p5856
aa(lp5857
S'17.4966'
p5858
aS'78.3733'
p5859
aa(lp5860
S'17.4966'
p5861
aS'78.3733'
p5862
aa(lp5863
S'17.4966'
p5864
aS'78.3732'
p5865
aa(lp5866
S'17.4966'
p5867
aS'78.3732'
p5868
aa(lp5869
S'17.4966'
p5870
aS'78.3732'
p5871
aa(lp5872
S'17.4966'
p5873
aS'78.3732'
p5874
aa(lp5875
S'17.4966'
p5876
aS'78.3732'
p5877
aa(lp5878
S'17.4966'
p5879
aS'78.3732'
p5880
aa(lp5881
S'17.4966'
p5882
aS'78.3732'
p5883
aa(lp5884
S'17.4966'
p5885
aS'78.3732'
p5886
aa(lp5887
S'17.4966'
p5888
aS'78.3732'
p5889
aa(lp5890
S'17.4966'
p5891
aS'78.3732'
p5892
aa(lp5893
S'17.4966'
p5894
aS'78.3732'
p5895
aa(lp5896
S'17.4966'
p5897
aS'78.3731'
p5898
aa(lp5899
S'17.4966'
p5900
aS'78.3731'
p5901
aa(lp5902
S'17.4966'
p5903
aS'78.3731'
p5904
aa(lp5905
S'17.4966'
p5906
aS'78.3731'
p5907
aa(lp5908
S'17.4966'
p5909
aS'78.3731'
p5910
aa(lp5911
S'17.4966'
p5912
aS'78.3731'
p5913
aa(lp5914
S'17.4966'
p5915
aS'78.3731'
p5916
aa(lp5917
S'17.4966'
p5918
aS'78.3731'
p5919
aa(lp5920
S'17.4966'
p5921
aS'78.3731'
p5922
aa(lp5923
S'17.4966'
p5924
aS'78.3731'
p5925
aa(lp5926
S'17.4966'
p5927
aS'78.3731'
p5928
aa(lp5929
S'17.4966'
p5930
aS'78.3730'
p5931
aa(lp5932
S'17.4966'
p5933
aS'78.3730'
p5934
aa(lp5935
S'17.4966'
p5936
aS'78.3730'
p5937
aa(lp5938
S'17.4966'
p5939
aS'78.3730'
p5940
aa(lp5941
S'17.4966'
p5942
aS'78.3730'
p5943
aa(lp5944
S'17.4966'
p5945
aS'78.3730'
p5946
aa(lp5947
S'17.4966'
p5948
aS'78.3730'
p5949
aa(lp5950
S'17.4966'
p5951
aS'78.3730'
p5952
aa(lp5953
S'17.4966'
p5954
aS'78.3730'
p5955
aa(lp5956
S'17.4966'
p5957
aS'78.3730'
p5958
aa(lp5959
S'17.4966'
p5960
aS'78.3729'
p5961
aa(lp5962
S'17.4966'
p5963
aS'78.3729'
p5964
aa(lp5965
S'17.4966'
p5966
aS'78.3729'
p5967
aa(lp5968
S'17.4966'
p5969
aS'78.3729'
p5970
aa(lp5971
S'17.4966'
p5972
aS'78.3729'
p5973
aa(lp5974
S'17.4966'
p5975
aS'78.3729'
p5976
aa(lp5977
S'17.4966'
p5978
aS'78.3729'
p5979
aa(lp5980
S'17.4966'
p5981
aS'78.3729'
p5982
aa(lp5983
S'17.4966'
p5984
aS'78.3729'
p5985
aa(lp5986
S'17.4966'
p5987
aS'78.3729'
p5988
aa(lp5989
S'17.4966'
p5990
aS'78.3729'
p5991
aa(lp5992
S'17.4966'
p5993
aS'78.3728'
p5994
aa(lp5995
S'17.4966'
p5996
aS'78.3728'
p5997
aa(lp5998
S'17.4966'
p5999
aS'78.3728'
p6000
aa(lp6001
S'17.4966'
p6002
aS'78.3728'
p6003
aa(lp6004
S'17.4966'
p6005
aS'78.3728'
p6006
aa(lp6007
S'17.4966'
p6008
aS'78.3728'
p6009
aa(lp6010
S'17.4966'
p6011
aS'78.3728'
p6012
aa(lp6013
S'17.4966'
p6014
aS'78.3728'
p6015
aa(lp6016
S'17.4966'
p6017
aS'78.3728'
p6018
aa(lp6019
S'17.4966'
p6020
aS'78.3728'
p6021
aa(lp6022
S'17.4966'
p6023
aS'78.3728'
p6024
aa(lp6025
S'17.4966'
p6026
aS'78.3727'
p6027
aa(lp6028
S'17.4966'
p6029
aS'78.3727'
p6030
aa(lp6031
S'17.4966'
p6032
aS'78.3727'
p6033
aa(lp6034
S'17.4966'
p6035
aS'78.3727'
p6036
aa(lp6037
S'17.4966'
p6038
aS'78.3727'
p6039
aa(lp6040
S'17.4966'
p6041
aS'78.3727'
p6042
aa(lp6043
S'17.4966'
p6044
aS'78.3727'
p6045
aa(lp6046
S'17.4966'
p6047
aS'78.3727'
p6048
aa(lp6049
S'17.4966'
p6050
aS'78.3727'
p6051
aa(lp6052
S'17.4966'
p6053
aS'78.3727'
p6054
aa(lp6055
S'17.4966'
p6056
aS'78.3726'
p6057
aa(lp6058
S'17.4966'
p6059
aS'78.3726'
p6060
aa(lp6061
S'17.4966'
p6062
aS'78.3726'
p6063
aa(lp6064
S'17.4966'
p6065
aS'78.3726'
p6066
aa(lp6067
S'17.4966'
p6068
aS'78.3726'
p6069
aa(lp6070
S'17.4966'
p6071
aS'78.3726'
p6072
aa(lp6073
S'17.4966'
p6074
aS'78.3726'
p6075
aa(lp6076
S'17.4966'
p6077
aS'78.3726'
p6078
aa(lp6079
S'17.4966'
p6080
aS'78.3726'
p6081
aa(lp6082
S'17.4966'
p6083
aS'78.3726'
p6084
aa(lp6085
S'17.4966'
p6086
aS'78.3726'
p6087
aa(lp6088
S'17.4966'
p6089
aS'78.3725'
p6090
aa(lp6091
S'17.4966'
p6092
aS'78.3725'
p6093
aa(lp6094
S'17.4966'
p6095
aS'78.3725'
p6096
aa(lp6097
S'17.4966'
p6098
aS'78.3725'
p6099
aa(lp6100
S'17.4966'
p6101
aS'78.3725'
p6102
aa(lp6103
S'17.4966'
p6104
aS'78.3725'
p6105
aa(lp6106
S'17.4966'
p6107
aS'78.3725'
p6108
aa(lp6109
S'17.4966'
p6110
aS'78.3725'
p6111
aa(lp6112
S'17.4966'
p6113
aS'78.3725'
p6114
aa(lp6115
S'17.4966'
p6116
aS'78.3725'
p6117
aa(lp6118
S'17.4966'
p6119
aS'78.3724'
p6120
aa(lp6121
S'17.4966'
p6122
aS'78.3724'
p6123
aa(lp6124
S'17.4966'
p6125
aS'78.3724'
p6126
aa(lp6127
S'17.4966'
p6128
aS'78.3724'
p6129
aa(lp6130
S'17.4966'
p6131
aS'78.3724'
p6132
aa(lp6133
S'17.4966'
p6134
aS'78.3724'
p6135
aa(lp6136
S'17.4966'
p6137
aS'78.3724'
p6138
aa(lp6139
S'17.4966'
p6140
aS'78.3724'
p6141
aa(lp6142
S'17.4966'
p6143
aS'78.3724'
p6144
aa(lp6145
S'17.4966'
p6146
aS'78.3724'
p6147
aa(lp6148
S'17.4966'
p6149
aS'78.3724'
p6150
aa(lp6151
S'17.4966'
p6152
aS'78.3723'
p6153
aa(lp6154
S'17.4966'
p6155
aS'78.3723'
p6156
aa(lp6157
S'17.4966'
p6158
aS'78.3723'
p6159
aa(lp6160
S'17.4966'
p6161
aS'78.3723'
p6162
aa(lp6163
S'17.4966'
p6164
aS'78.3723'
p6165
aa(lp6166
S'17.4966'
p6167
aS'78.3723'
p6168
aa(lp6169
S'17.4966'
p6170
aS'78.3723'
p6171
aa(lp6172
S'17.4966'
p6173
aS'78.3723'
p6174
aa(lp6175
S'17.4966'
p6176
aS'78.3723'
p6177
aa(lp6178
S'17.4966'
p6179
aS'78.3723'
p6180
aa(lp6181
S'17.4966'
p6182
aS'78.3723'
p6183
aa(lp6184
S'17.4966'
p6185
aS'78.3722'
p6186
aa(lp6187
S'17.4966'
p6188
aS'78.3722'
p6189
aa(lp6190
S'17.4966'
p6191
aS'78.3722'
p6192
aa(lp6193
S'17.4966'
p6194
aS'78.3722'
p6195
aa(lp6196
S'17.4966'
p6197
aS'78.3722'
p6198
aa(lp6199
S'17.4966'
p6200
aS'78.3722'
p6201
aa(lp6202
S'17.4966'
p6203
aS'78.3722'
p6204
aa(lp6205
S'17.4966'
p6206
aS'78.3722'
p6207
aa(lp6208
S'17.4966'
p6209
aS'78.3722'
p6210
aa(lp6211
S'17.4966'
p6212
aS'78.3722'
p6213
aa(lp6214
S'17.4966'
p6215
aS'78.3721'
p6216
aa(lp6217
S'17.4966'
p6218
aS'78.3721'
p6219
aa(lp6220
S'17.4966'
p6221
aS'78.3721'
p6222
aa(lp6223
S'17.4966'
p6224
aS'78.3721'
p6225
aa(lp6226
S'17.4966'
p6227
aS'78.3721'
p6228
aa(lp6229
S'17.4966'
p6230
aS'78.3721'
p6231
aa(lp6232
S'17.4966'
p6233
aS'78.3721'
p6234
aa(lp6235
S'17.4966'
p6236
aS'78.3721'
p6237
aa(lp6238
S'17.4966'
p6239
aS'78.3721'
p6240
aa(lp6241
S'17.4966'
p6242
aS'78.3721'
p6243
aa(lp6244
S'17.4966'
p6245
aS'78.3721'
p6246
aa(lp6247
S'17.4966'
p6248
aS'78.3720'
p6249
aa(lp6250
S'17.4966'
p6251
aS'78.3720'
p6252
aa(lp6253
S'17.4966'
p6254
aS'78.3720'
p6255
aa(lp6256
S'17.4966'
p6257
aS'78.3720'
p6258
aa(lp6259
S'17.4966'
p6260
aS'78.3720'
p6261
aa(lp6262
S'17.4966'
p6263
aS'78.3720'
p6264
aa(lp6265
S'17.4966'
p6266
aS'78.3720'
p6267
aa(lp6268
S'17.4966'
p6269
aS'78.3720'
p6270
aa(lp6271
S'17.4966'
p6272
aS'78.3720'
p6273
aa(lp6274
S'17.4966'
p6275
aS'78.3720'
p6276
aa(lp6277
S'17.4966'
p6278
aS'78.3720'
p6279
aa(lp6280
S'17.4966'
p6281
aS'78.3719'
p6282
aa(lp6283
S'17.4966'
p6284
aS'78.3719'
p6285
aa(lp6286
S'17.4966'
p6287
aS'78.3719'
p6288
aa(lp6289
S'17.4966'
p6290
aS'78.3719'
p6291
aa(lp6292
S'17.4966'
p6293
aS'78.3719'
p6294
aa(lp6295
S'17.4966'
p6296
aS'78.3719'
p6297
aa(lp6298
S'17.4966'
p6299
aS'78.3719'
p6300
aa(lp6301
S'17.4966'
p6302
aS'78.3719'
p6303
aa(lp6304
S'17.4966'
p6305
aS'78.3719'
p6306
aa(lp6307
S'17.4966'
p6308
aS'78.3719'
p6309
aa(lp6310
S'17.4966'
p6311
aS'78.3718'
p6312
aa(lp6313
S'17.4966'
p6314
aS'78.3718'
p6315
aa(lp6316
S'17.4966'
p6317
aS'78.3718'
p6318
aa(lp6319
S'17.4966'
p6320
aS'78.3718'
p6321
aa(lp6322
S'17.4966'
p6323
aS'78.3718'
p6324
aa(lp6325
S'17.4966'
p6326
aS'78.3718'
p6327
aa(lp6328
S'17.4966'
p6329
aS'78.3718'
p6330
aa(lp6331
S'17.4966'
p6332
aS'78.3718'
p6333
aa(lp6334
S'17.4966'
p6335
aS'78.3718'
p6336
aa(lp6337
S'17.4966'
p6338
aS'78.3718'
p6339
aa(lp6340
S'17.4966'
p6341
aS'78.3718'
p6342
aa(lp6343
S'17.4966'
p6344
aS'78.3717'
p6345
aa(lp6346
S'17.4966'
p6347
aS'78.3717'
p6348
aa(lp6349
S'17.4966'
p6350
aS'78.3717'
p6351
aa(lp6352
S'17.4966'
p6353
aS'78.3717'
p6354
aa(lp6355
S'17.4966'
p6356
aS'78.3717'
p6357
aa(lp6358
S'17.4966'
p6359
aS'78.3717'
p6360
aa(lp6361
S'17.4966'
p6362
aS'78.3717'
p6363
aa(lp6364
S'17.4966'
p6365
aS'78.3717'
p6366
aa(lp6367
S'17.4966'
p6368
aS'78.3717'
p6369
aa(lp6370
S'17.4966'
p6371
aS'78.3717'
p6372
aa(lp6373
S'17.4966'
p6374
aS'78.3716'
p6375
aa(lp6376
S'17.4966'
p6377
aS'78.3716'
p6378
aa(lp6379
S'17.4966'
p6380
aS'78.3716'
p6381
aa(lp6382
S'17.4966'
p6383
aS'78.3716'
p6384
aa(lp6385
S'17.4966'
p6386
aS'78.3716'
p6387
aa(lp6388
S'17.4966'
p6389
aS'78.3716'
p6390
aa(lp6391
S'17.4966'
p6392
aS'78.3716'
p6393
aa(lp6394
S'17.4966'
p6395
aS'78.3716'
p6396
aa(lp6397
S'17.4966'
p6398
aS'78.3716'
p6399
aa(lp6400
S'17.4966'
p6401
aS'78.3716'
p6402
aa(lp6403
S'17.4966'
p6404
aS'78.3716'
p6405
aa(lp6406
S'17.4966'
p6407
aS'78.3715'
p6408
aa(lp6409
S'17.4966'
p6410
aS'78.3715'
p6411
aa(lp6412
S'17.4966'
p6413
aS'78.3715'
p6414
aa(lp6415
S'17.4966'
p6416
aS'78.3715'
p6417
aa(lp6418
S'17.4966'
p6419
aS'78.3715'
p6420
aa(lp6421
S'17.4966'
p6422
aS'78.3715'
p6423
aa(lp6424
S'17.4966'
p6425
aS'78.3715'
p6426
aa(lp6427
S'17.4966'
p6428
aS'78.3715'
p6429
aa(lp6430
S'17.4966'
p6431
aS'78.3715'
p6432
aa(lp6433
S'17.4966'
p6434
aS'78.3715'
p6435
aa(lp6436
S'17.4966'
p6437
aS'78.3715'
p6438
aa(lp6439
S'17.4966'
p6440
aS'78.3714'
p6441
aa(lp6442
S'17.4966'
p6443
aS'78.3714'
p6444
aa(lp6445
S'17.4966'
p6446
aS'78.3714'
p6447
aa(lp6448
S'17.4966'
p6449
aS'78.3714'
p6450
aa(lp6451
S'17.4966'
p6452
aS'78.3714'
p6453
aa(lp6454
S'17.4966'
p6455
aS'78.3714'
p6456
aa(lp6457
S'17.4966'
p6458
aS'78.3714'
p6459
aa(lp6460
S'17.4966'
p6461
aS'78.3714'
p6462
aa(lp6463
S'17.4966'
p6464
aS'78.3714'
p6465
aa(lp6466
S'17.4966'
p6467
aS'78.3714'
p6468
aa(lp6469
S'17.4966'
p6470
aS'78.3713'
p6471
aa(lp6472
S'17.4966'
p6473
aS'78.3713'
p6474
aa(lp6475
S'17.4966'
p6476
aS'78.3713'
p6477
aa(lp6478
S'17.4966'
p6479
aS'78.3713'
p6480
aa(lp6481
S'17.4966'
p6482
aS'78.3713'
p6483
aa(lp6484
S'17.4966'
p6485
aS'78.3713'
p6486
aa(lp6487
S'17.4966'
p6488
aS'78.3713'
p6489
aa(lp6490
S'17.4966'
p6491
aS'78.3713'
p6492
aa(lp6493
S'17.4966'
p6494
aS'78.3713'
p6495
aa(lp6496
S'17.4966'
p6497
aS'78.3713'
p6498
aa(lp6499
S'17.4966'
p6500
aS'78.3713'
p6501
aa(lp6502
S'17.4966'
p6503
aS'78.3712'
p6504
aa(lp6505
S'17.4966'
p6506
aS'78.3712'
p6507
aa(lp6508
S'17.4966'
p6509
aS'78.3712'
p6510
aa(lp6511
S'17.4966'
p6512
aS'78.3712'
p6513
aa(lp6514
S'17.4966'
p6515
aS'78.3712'
p6516
aa(lp6517
S'17.4966'
p6518
aS'78.3712'
p6519
aa(lp6520
S'17.4966'
p6521
aS'78.3712'
p6522
aa(lp6523
S'17.4966'
p6524
aS'78.3712'
p6525
aa(lp6526
S'17.4966'
p6527
aS'78.3712'
p6528
aa(lp6529
S'17.4966'
p6530
aS'78.3712'
p6531
aa(lp6532
S'17.4966'
p6533
aS'78.3711'
p6534
aa(lp6535
S'17.4966'
p6536
aS'78.3711'
p6537
aa(lp6538
S'17.4966'
p6539
aS'78.3711'
p6540
aa(lp6541
S'17.4966'
p6542
aS'78.3711'
p6543
aa(lp6544
S'17.4966'
p6545
aS'78.3711'
p6546
aa(lp6547
S'17.4966'
p6548
aS'78.3711'
p6549
aa(lp6550
S'17.4966'
p6551
aS'78.3711'
p6552
aa(lp6553
S'17.4966'
p6554
aS'78.3711'
p6555
aa(lp6556
S'17.4966'
p6557
aS'78.3711'
p6558
aa(lp6559
S'17.4966'
p6560
aS'78.3711'
p6561
aa(lp6562
S'17.4966'
p6563
aS'78.3711'
p6564
aa(lp6565
S'17.4966'
p6566
aS'78.3710'
p6567
aa(lp6568
S'17.4966'
p6569
aS'78.3710'
p6570
aa(lp6571
S'17.4966'
p6572
aS'78.3710'
p6573
aa(lp6574
S'17.4966'
p6575
aS'78.3710'
p6576
aa(lp6577
S'17.4966'
p6578
aS'78.3710'
p6579
aa(lp6580
S'17.4966'
p6581
aS'78.3710'
p6582
aa(lp6583
S'17.4966'
p6584
aS'78.3710'
p6585
aa(lp6586
S'17.4966'
p6587
aS'78.3710'
p6588
aa(lp6589
S'17.4966'
p6590
aS'78.3710'
p6591
aa(lp6592
S'17.4966'
p6593
aS'78.3710'
p6594
aa(lp6595
S'17.4966'
p6596
aS'78.3710'
p6597
aa(lp6598
S'17.4966'
p6599
aS'78.3709'
p6600
aa(lp6601
S'17.4966'
p6602
aS'78.3709'
p6603
aa(lp6604
S'17.4966'
p6605
aS'78.3709'
p6606
aa(lp6607
S'17.4966'
p6608
aS'78.3709'
p6609
aa(lp6610
S'17.4966'
p6611
aS'78.3709'
p6612
aa(lp6613
S'17.4966'
p6614
aS'78.3709'
p6615
aa(lp6616
S'17.4966'
p6617
aS'78.3709'
p6618
aa(lp6619
S'17.4966'
p6620
aS'78.3709'
p6621
aa(lp6622
S'17.4966'
p6623
aS'78.3709'
p6624
aa(lp6625
S'17.4966'
p6626
aS'78.3709'
p6627
aa(lp6628
S'17.4966'
p6629
aS'78.3708'
p6630
aa(lp6631
S'17.4966'
p6632
aS'78.3708'
p6633
aa(lp6634
S'17.4966'
p6635
aS'78.3708'
p6636
aa(lp6637
S'17.4966'
p6638
aS'78.3708'
p6639
aa(lp6640
S'17.4966'
p6641
aS'78.3708'
p6642
aa(lp6643
S'17.4966'
p6644
aS'78.3708'
p6645
aa(lp6646
S'17.4966'
p6647
aS'78.3708'
p6648
aa(lp6649
S'17.4966'
p6650
aS'78.3708'
p6651
aa(lp6652
S'17.4966'
p6653
aS'78.3708'
p6654
aa(lp6655
S'17.4966'
p6656
aS'78.3708'
p6657
aa(lp6658
S'17.4966'
p6659
aS'78.3708'
p6660
aa(lp6661
S'17.4966'
p6662
aS'78.3707'
p6663
aa(lp6664
S'17.4966'
p6665
aS'78.3707'
p6666
aa(lp6667
S'17.4966'
p6668
aS'78.3707'
p6669
aa(lp6670
S'17.4966'
p6671
aS'78.3707'
p6672
aa(lp6673
S'17.4966'
p6674
aS'78.3707'
p6675
aa(lp6676
S'17.4966'
p6677
aS'78.3707'
p6678
aa(lp6679
S'17.4966'
p6680
aS'78.3707'
p6681
aa(lp6682
S'17.4966'
p6683
aS'78.3707'
p6684
aa(lp6685
S'17.4966'
p6686
aS'78.3707'
p6687
aa(lp6688
S'17.4966'
p6689
aS'78.3707'
p6690
aa(lp6691
S'17.4966'
p6692
aS'78.3707'
p6693
aa(lp6694
S'17.4966'
p6695
aS'78.3706'
p6696
aa(lp6697
S'17.4966'
p6698
aS'78.3706'
p6699
aa(lp6700
S'17.4966'
p6701
aS'78.3706'
p6702
aa(lp6703
S'17.4966'
p6704
aS'78.3706'
p6705
aa(lp6706
S'17.4966'
p6707
aS'78.3706'
p6708
aa(lp6709
S'17.4966'
p6710
aS'78.3706'
p6711
aa(lp6712
S'17.4966'
p6713
aS'78.3706'
p6714
aa(lp6715
S'17.4966'
p6716
aS'78.3706'
p6717
aa(lp6718
S'17.4966'
p6719
aS'78.3706'
p6720
aa(lp6721
S'17.4966'
p6722
aS'78.3706'
p6723
aa(lp6724
S'17.4966'
p6725
aS'78.3705'
p6726
aa(lp6727
S'17.4966'
p6728
aS'78.3705'
p6729
aa(lp6730
S'17.4966'
p6731
aS'78.3705'
p6732
aa(lp6733
S'17.4966'
p6734
aS'78.3705'
p6735
aa(lp6736
S'17.4966'
p6737
aS'78.3705'
p6738
aa(lp6739
S'17.4966'
p6740
aS'78.3705'
p6741
aa(lp6742
S'17.4966'
p6743
aS'78.3705'
p6744
aa(lp6745
S'17.4966'
p6746
aS'78.3705'
p6747
aa(lp6748
S'17.4966'
p6749
aS'78.3705'
p6750
aa(lp6751
S'17.4966'
p6752
aS'78.3705'
p6753
aa(lp6754
S'17.4966'
p6755
aS'78.3705'
p6756
aa(lp6757
S'17.4966'
p6758
aS'78.3704'
p6759
aa(lp6760
S'17.4966'
p6761
aS'78.3704'
p6762
aa(lp6763
S'17.4966'
p6764
aS'78.3704'
p6765
aa(lp6766
S'17.4966'
p6767
aS'78.3704'
p6768
aa(lp6769
S'17.4966'
p6770
aS'78.3704'
p6771
aa(lp6772
S'17.4966'
p6773
aS'78.3704'
p6774
aa(lp6775
S'17.4966'
p6776
aS'78.3704'
p6777
aa(lp6778
S'17.4966'
p6779
aS'78.3704'
p6780
aa(lp6781
S'17.4966'
p6782
aS'78.3704'
p6783
aa(lp6784
S'17.4966'
p6785
aS'78.3704'
p6786
aa(lp6787
S'17.4966'
p6788
aS'78.3703'
p6789
aa(lp6790
S'17.4966'
p6791
aS'78.3703'
p6792
aa(lp6793
S'17.4966'
p6794
aS'78.3703'
p6795
aa(lp6796
S'17.4966'
p6797
aS'78.3703'
p6798
aa(lp6799
S'17.4966'
p6800
aS'78.3703'
p6801
aa(lp6802
S'17.4966'
p6803
aS'78.3703'
p6804
aa(lp6805
S'17.4966'
p6806
aS'78.3703'
p6807
aa(lp6808
S'17.4966'
p6809
aS'78.3703'
p6810
aa(lp6811
S'17.4966'
p6812
aS'78.3703'
p6813
aa(lp6814
S'17.4966'
p6815
aS'78.3703'
p6816
aa(lp6817
S'17.4966'
p6818
aS'78.3703'
p6819
aa(lp6820
S'17.4966'
p6821
aS'78.3702'
p6822
aa(lp6823
S'17.4966'
p6824
aS'78.3702'
p6825
aa(lp6826
S'17.4966'
p6827
aS'78.3702'
p6828
aa(lp6829
S'17.4966'
p6830
aS'78.3702'
p6831
aa(lp6832
S'17.4966'
p6833
aS'78.3702'
p6834
aa(lp6835
S'17.4966'
p6836
aS'78.3702'
p6837
aa(lp6838
S'17.4966'
p6839
aS'78.3702'
p6840
aa(lp6841
S'17.4966'
p6842
aS'78.3702'
p6843
aa(lp6844
S'17.4966'
p6845
aS'78.3702'
p6846
aa(lp6847
S'17.4966'
p6848
aS'78.3702'
p6849
aa(lp6850
S'17.4966'
p6851
aS'78.3702'
p6852
aa(lp6853
S'17.4966'
p6854
aS'78.3701'
p6855
aa(lp6856
S'17.4966'
p6857
aS'78.3701'
p6858
aa(lp6859
S'17.4966'
p6860
aS'78.3701'
p6861
aa(lp6862
S'17.4966'
p6863
aS'78.3701'
p6864
aa(lp6865
S'17.4966'
p6866
aS'78.3701'
p6867
aa(lp6868
S'17.4966'
p6869
aS'78.3701'
p6870
aa(lp6871
S'17.4966'
p6872
aS'78.3701'
p6873
aa(lp6874
S'17.4966'
p6875
aS'78.3701'
p6876
aa(lp6877
S'17.4966'
p6878
aS'78.3701'
p6879
aa(lp6880
S'17.4966'
p6881
aS'78.3701'
p6882
aa(lp6883
S'17.4966'
p6884
aS'78.3700'
p6885
aa(lp6886
S'17.4966'
p6887
aS'78.3700'
p6888
aa(lp6889
S'17.4966'
p6890
aS'78.3700'
p6891
aa(lp6892
S'17.4966'
p6893
aS'78.3700'
p6894
aa(lp6895
S'17.4966'
p6896
aS'78.3700'
p6897
aa(lp6898
S'17.4966'
p6899
aS'78.3700'
p6900
aa(lp6901
S'17.4966'
p6902
aS'78.3700'
p6903
aa(lp6904
S'17.4966'
p6905
aS'78.3700'
p6906
aa(lp6907
S'17.4966'
p6908
aS'78.3700'
p6909
aa(lp6910
S'17.4966'
p6911
aS'78.3700'
p6912
aa(lp6913
S'17.4966'
p6914
aS'78.3700'
p6915
aa(lp6916
S'17.4966'
p6917
aS'78.3699'
p6918
aa(lp6919
S'17.4966'
p6920
aS'78.3699'
p6921
aa(lp6922
S'17.4966'
p6923
aS'78.3699'
p6924
aa(lp6925
S'17.4966'
p6926
aS'78.3699'
p6927
aa(lp6928
S'17.4966'
p6929
aS'78.3699'
p6930
aa(lp6931
S'17.4966'
p6932
aS'78.3699'
p6933
aa(lp6934
S'17.4966'
p6935
aS'78.3699'
p6936
aa(lp6937
S'17.4966'
p6938
aS'78.3699'
p6939
aa(lp6940
S'17.4966'
p6941
aS'78.3699'
p6942
aa(lp6943
S'17.4966'
p6944
aS'78.3699'
p6945
aa(lp6946
S'17.4966'
p6947
aS'78.3698'
p6948
aa(lp6949
S'17.4966'
p6950
aS'78.3698'
p6951
aa(lp6952
S'17.4966'
p6953
aS'78.3698'
p6954
aa(lp6955
S'17.4966'
p6956
aS'78.3698'
p6957
aa(lp6958
S'17.4965'
p6959
aS'78.3698'
p6960
aa(lp6961
S'17.4965'
p6962
aS'78.3698'
p6963
aa(lp6964
S'17.4965'
p6965
aS'78.3698'
p6966
aa(lp6967
S'17.4965'
p6968
aS'78.3698'
p6969
aa(lp6970
S'17.4965'
p6971
aS'78.3698'
p6972
aa(lp6973
S'17.4965'
p6974
aS'78.3698'
p6975
aa(lp6976
S'17.4965'
p6977
aS'78.3698'
p6978
aa(lp6979
S'17.4965'
p6980
aS'78.3697'
p6981
aa(lp6982
S'17.4965'
p6983
aS'78.3697'
p6984
aa(lp6985
S'17.4965'
p6986
aS'78.3697'
p6987
aa(lp6988
S'17.4965'
p6989
aS'78.3697'
p6990
aa(lp6991
S'17.4965'
p6992
aS'78.3697'
p6993
aa(lp6994
S'17.4965'
p6995
aS'78.3697'
p6996
aa(lp6997
S'17.4965'
p6998
aS'78.3697'
p6999
aa(lp7000
S'17.4965'
p7001
aS'78.3697'
p7002
aa(lp7003
S'17.4965'
p7004
aS'78.3697'
p7005
aa(lp7006
S'17.4965'
p7007
aS'78.3697'
p7008
aa(lp7009
S'17.4965'
p7010
aS'78.3697'
p7011
aa(lp7012
S'17.4965'
p7013
aS'78.3696'
p7014
aa(lp7015
S'17.4965'
p7016
aS'78.3696'
p7017
aa(lp7018
S'17.4965'
p7019
aS'78.3696'
p7020
aa(lp7021
S'17.4965'
p7022
aS'78.3696'
p7023
aa(lp7024
S'17.4965'
p7025
aS'78.3696'
p7026
aa(lp7027
S'17.4965'
p7028
aS'78.3696'
p7029
aa(lp7030
S'17.4965'
p7031
aS'78.3696'
p7032
aa(lp7033
S'17.4965'
p7034
aS'78.3696'
p7035
aa(lp7036
S'17.4965'
p7037
aS'78.3696'
p7038
aa(lp7039
S'17.4965'
p7040
aS'78.3696'
p7041
aa(lp7042
S'17.4965'
p7043
aS'78.3695'
p7044
aa(lp7045
S'17.4965'
p7046
aS'78.3695'
p7047
aa(lp7048
S'17.4965'
p7049
aS'78.3695'
p7050
aa(lp7051
S'17.4965'
p7052
aS'78.3695'
p7053
aa(lp7054
S'17.4965'
p7055
aS'78.3695'
p7056
aa(lp7057
S'17.4965'
p7058
aS'78.3695'
p7059
aa(lp7060
S'17.4965'
p7061
aS'78.3695'
p7062
aa(lp7063
S'17.4965'
p7064
aS'78.3695'
p7065
aa(lp7066
S'17.4965'
p7067
aS'78.3695'
p7068
aa(lp7069
S'17.4965'
p7070
aS'78.3695'
p7071
aa(lp7072
S'17.4965'
p7073
aS'78.3695'
p7074
aa(lp7075
S'17.4965'
p7076
aS'78.3694'
p7077
aa(lp7078
S'17.4965'
p7079
aS'78.3694'
p7080
aa(lp7081
S'17.4965'
p7082
aS'78.3694'
p7083
aa(lp7084
S'17.4965'
p7085
aS'78.3694'
p7086
aa(lp7087
S'17.4965'
p7088
aS'78.3694'
p7089
aa(lp7090
S'17.4965'
p7091
aS'78.3694'
p7092
aa(lp7093
S'17.4965'
p7094
aS'78.3694'
p7095
aa(lp7096
S'17.4965'
p7097
aS'78.3694'
p7098
aa(lp7099
S'17.4965'
p7100
aS'78.3694'
p7101
aa(lp7102
S'17.4965'
p7103
aS'78.3694'
p7104
aa(lp7105
S'17.4965'
p7106
aS'78.3694'
p7107
aa(lp7108
S'17.4965'
p7109
aS'78.3693'
p7110
aa(lp7111
S'17.4965'
p7112
aS'78.3693'
p7113
aa(lp7114
S'17.4965'
p7115
aS'78.3693'
p7116
aa(lp7117
S'17.4965'
p7118
aS'78.3693'
p7119
aa(lp7120
S'17.4965'
p7121
aS'78.3693'
p7122
aa(lp7123
S'17.4965'
p7124
aS'78.3693'
p7125
aa(lp7126
S'17.4965'
p7127
aS'78.3693'
p7128
aa(lp7129
S'17.4965'
p7130
aS'78.3693'
p7131
aa(lp7132
S'17.4965'
p7133
aS'78.3693'
p7134
aa(lp7135
S'17.4965'
p7136
aS'78.3693'
p7137
aa(lp7138
S'17.4965'
p7139
aS'78.3692'
p7140
aa(lp7141
S'17.4965'
p7142
aS'78.3692'
p7143
aa(lp7144
S'17.4965'
p7145
aS'78.3692'
p7146
aa(lp7147
S'17.4965'
p7148
aS'78.3692'
p7149
aa(lp7150
S'17.4965'
p7151
aS'78.3692'
p7152
aa(lp7153
S'17.4965'
p7154
aS'78.3692'
p7155
aa(lp7156
S'17.4965'
p7157
aS'78.3692'
p7158
aa(lp7159
S'17.4965'
p7160
aS'78.3692'
p7161
aa(lp7162
S'17.4965'
p7163
aS'78.3692'
p7164
aa(lp7165
S'17.4965'
p7166
aS'78.3692'
p7167
aa(lp7168
S'17.4965'
p7169
aS'78.3692'
p7170
aa(lp7171
S'17.4965'
p7172
aS'78.3691'
p7173
aa(lp7174
S'17.4965'
p7175
aS'78.3691'
p7176
aa(lp7177
S'17.4965'
p7178
aS'78.3691'
p7179
aa(lp7180
S'17.4965'
p7181
aS'78.3691'
p7182
aa(lp7183
S'17.4965'
p7184
aS'78.3691'
p7185
aa(lp7186
S'17.4965'
p7187
aS'78.3691'
p7188
aa(lp7189
S'17.4965'
p7190
aS'78.3691'
p7191
aa(lp7192
S'17.4965'
p7193
aS'78.3691'
p7194
aa(lp7195
S'17.4965'
p7196
aS'78.3691'
p7197
aa(lp7198
S'17.4965'
p7199
aS'78.3691'
p7200
aa(lp7201
S'17.4965'
p7202
aS'78.3690'
p7203
aa(lp7204
S'17.4965'
p7205
aS'78.3690'
p7206
aa(lp7207
S'17.4965'
p7208
aS'78.3690'
p7209
aa(lp7210
S'17.4965'
p7211
aS'78.3690'
p7212
aa(lp7213
S'17.4965'
p7214
aS'78.3690'
p7215
aa(lp7216
S'17.4965'
p7217
aS'78.3690'
p7218
aa(lp7219
S'17.4965'
p7220
aS'78.3690'
p7221
aa(lp7222
S'17.4965'
p7223
aS'78.3690'
p7224
aa(lp7225
S'17.4965'
p7226
aS'78.3690'
p7227
aa(lp7228
S'17.4965'
p7229
aS'78.3690'
p7230
aa(lp7231
S'17.4965'
p7232
aS'78.3690'
p7233
aa(lp7234
S'17.4965'
p7235
aS'78.3689'
p7236
aa(lp7237
S'17.4965'
p7238
aS'78.3689'
p7239
aa(lp7240
S'17.4965'
p7241
aS'78.3689'
p7242
aa(lp7243
S'17.4965'
p7244
aS'78.3689'
p7245
aa(lp7246
S'17.4965'
p7247
aS'78.3689'
p7248
aa(lp7249
S'17.4965'
p7250
aS'78.3689'
p7251
aa(lp7252
S'17.4965'
p7253
aS'78.3689'
p7254
aa(lp7255
S'17.4965'
p7256
aS'78.3689'
p7257
aa(lp7258
S'17.4965'
p7259
aS'78.3689'
p7260
aa(lp7261
S'17.4965'
p7262
aS'78.3689'
p7263
aa(lp7264
S'17.4965'
p7265
aS'78.3689'
p7266
aa(lp7267
S'17.4965'
p7268
aS'78.3688'
p7269
aa(lp7270
S'17.4965'
p7271
aS'78.3688'
p7272
aa(lp7273
S'17.4965'
p7274
aS'78.3688'
p7275
aa(lp7276
S'17.4965'
p7277
aS'78.3688'
p7278
aa(lp7279
S'17.4965'
p7280
aS'78.3688'
p7281
aa(lp7282
S'17.4965'
p7283
aS'78.3688'
p7284
aa(lp7285
S'17.4965'
p7286
aS'78.3688'
p7287
aa(lp7288
S'17.4965'
p7289
aS'78.3688'
p7290
aa(lp7291
S'17.4965'
p7292
aS'78.3688'
p7293
aa(lp7294
S'17.4965'
p7295
aS'78.3688'
p7296
aa(lp7297
S'17.4965'
p7298
aS'78.3687'
p7299
aa(lp7300
S'17.4965'
p7301
aS'78.3687'
p7302
aa(lp7303
S'17.4965'
p7304
aS'78.3687'
p7305
aa(lp7306
S'17.4965'
p7307
aS'78.3687'
p7308
aa(lp7309
S'17.4965'
p7310
aS'78.3687'
p7311
aa(lp7312
S'17.4965'
p7313
aS'78.3687'
p7314
aa(lp7315
S'17.4965'
p7316
aS'78.3687'
p7317
aa(lp7318
S'17.4965'
p7319
aS'78.3687'
p7320
aa(lp7321
S'17.4965'
p7322
aS'78.3687'
p7323
aa(lp7324
S'17.4965'
p7325
aS'78.3687'
p7326
aa(lp7327
S'17.4965'
p7328
aS'78.3687'
p7329
aa(lp7330
S'17.4965'
p7331
aS'78.3686'
p7332
aa(lp7333
S'17.4965'
p7334
aS'78.3686'
p7335
aa(lp7336
S'17.4965'
p7337
aS'78.3686'
p7338
aa(lp7339
S'17.4965'
p7340
aS'78.3686'
p7341
aa(lp7342
S'17.4965'
p7343
aS'78.3686'
p7344
aa(lp7345
S'17.4965'
p7346
aS'78.3686'
p7347
aa(lp7348
S'17.4965'
p7349
aS'78.3686'
p7350
aa(lp7351
S'17.4965'
p7352
aS'78.3686'
p7353
aa(lp7354
S'17.4965'
p7355
aS'78.3686'
p7356
aa(lp7357
S'17.4965'
p7358
aS'78.3686'
p7359
aa(lp7360
S'17.4965'
p7361
aS'78.3686'
p7362
aa(lp7363
S'17.4965'
p7364
aS'78.3685'
p7365
aa(lp7366
S'17.4965'
p7367
aS'78.3685'
p7368
aa(lp7369
S'17.4965'
p7370
aS'78.3685'
p7371
aa(lp7372
S'17.4965'
p7373
aS'78.3685'
p7374
aa(lp7375
S'17.4965'
p7376
aS'78.3685'
p7377
aa(lp7378
S'17.4965'
p7379
aS'78.3685'
p7380
aa(lp7381
S'17.4965'
p7382
aS'78.3685'
p7383
aa(lp7384
S'17.4965'
p7385
aS'78.3685'
p7386
aa(lp7387
S'17.4965'
p7388
aS'78.3685'
p7389
aa(lp7390
S'17.4965'
p7391
aS'78.3685'
p7392
aa(lp7393
S'17.4965'
p7394
aS'78.3684'
p7395
aa(lp7396
S'17.4965'
p7397
aS'78.3684'
p7398
aa(lp7399
S'17.4965'
p7400
aS'78.3684'
p7401
aa(lp7402
S'17.4965'
p7403
aS'78.3684'
p7404
aa(lp7405
S'17.4965'
p7406
aS'78.3684'
p7407
aa(lp7408
S'17.4965'
p7409
aS'78.3684'
p7410
aa(lp7411
S'17.4965'
p7412
aS'78.3684'
p7413
aa(lp7414
S'17.4965'
p7415
aS'78.3684'
p7416
aa(lp7417
S'17.4965'
p7418
aS'78.3684'
p7419
aa(lp7420
S'17.4965'
p7421
aS'78.3684'
p7422
aa(lp7423
S'17.4965'
p7424
aS'78.3684'
p7425
aa(lp7426
S'17.4965'
p7427
aS'78.3683'
p7428
aa(lp7429
S'17.4965'
p7430
aS'78.3683'
p7431
aa(lp7432
S'17.4965'
p7433
aS'78.3683'
p7434
aa(lp7435
S'17.4965'
p7436
aS'78.3683'
p7437
aa(lp7438
S'17.4965'
p7439
aS'78.3683'
p7440
aa(lp7441
S'17.4965'
p7442
aS'78.3683'
p7443
aa(lp7444
S'17.4965'
p7445
aS'78.3683'
p7446
aa(lp7447
S'17.4965'
p7448
aS'78.3683'
p7449
aa(lp7450
S'17.4965'
p7451
aS'78.3683'
p7452
aa(lp7453
S'17.4965'
p7454
aS'78.3683'
p7455
aa(lp7456
S'17.4965'
p7457
aS'78.3682'
p7458
aa(lp7459
S'17.4965'
p7460
aS'78.3682'
p7461
aa(lp7462
S'17.4965'
p7463
aS'78.3682'
p7464
aa(lp7465
S'17.4965'
p7466
aS'78.3682'
p7467
aa(lp7468
S'17.4965'
p7469
aS'78.3682'
p7470
aa(lp7471
S'17.4965'
p7472
aS'78.3682'
p7473
aa(lp7474
S'17.4965'
p7475
aS'78.3682'
p7476
aa(lp7477
S'17.4965'
p7478
aS'78.3682'
p7479
aa(lp7480
S'17.4965'
p7481
aS'78.3682'
p7482
aa(lp7483
S'17.4965'
p7484
aS'78.3682'
p7485
aa(lp7486
S'17.4965'
p7487
aS'78.3682'
p7488
aa(lp7489
S'17.4965'
p7490
aS'78.3681'
p7491
aa(lp7492
S'17.4965'
p7493
aS'78.3681'
p7494
aa(lp7495
S'17.4965'
p7496
aS'78.3681'
p7497
aa(lp7498
S'17.4965'
p7499
aS'78.3681'
p7500
aa(lp7501
S'17.4965'
p7502
aS'78.3681'
p7503
aa(lp7504
S'17.4965'
p7505
aS'78.3681'
p7506
aa(lp7507
S'17.4965'
p7508
aS'78.3681'
p7509
aa(lp7510
S'17.4965'
p7511
aS'78.3681'
p7512
aa(lp7513
S'17.4965'
p7514
aS'78.3681'
p7515
aa(lp7516
S'17.4965'
p7517
aS'78.3681'
p7518
aa(lp7519
S'17.4965'
p7520
aS'78.3681'
p7521
aa(lp7522
S'17.4965'
p7523
aS'78.3680'
p7524
aa(lp7525
S'17.4965'
p7526
aS'78.3680'
p7527
aa(lp7528
S'17.4965'
p7529
aS'78.3680'
p7530
aa(lp7531
S'17.4965'
p7532
aS'78.3680'
p7533
aa(lp7534
S'17.4965'
p7535
aS'78.3680'
p7536
aa(lp7537
S'17.4965'
p7538
aS'78.3680'
p7539
aa(lp7540
S'17.4965'
p7541
aS'78.3680'
p7542
aa(lp7543
S'17.4965'
p7544
aS'78.3680'
p7545
aa(lp7546
S'17.4965'
p7547
aS'78.3680'
p7548
aa(lp7549
S'17.4965'
p7550
aS'78.3680'
p7551
aa(lp7552
S'17.4965'
p7553
aS'78.3679'
p7554
aa(lp7555
S'17.4965'
p7556
aS'78.3679'
p7557
aa(lp7558
S'17.4965'
p7559
aS'78.3679'
p7560
aa(lp7561
S'17.4965'
p7562
aS'78.3679'
p7563
aa(lp7564
S'17.4965'
p7565
aS'78.3679'
p7566
aa(lp7567
S'17.4965'
p7568
aS'78.3679'
p7569
aa(lp7570
S'17.4965'
p7571
aS'78.3679'
p7572
aa(lp7573
S'17.4965'
p7574
aS'78.3679'
p7575
aa(lp7576
S'17.4965'
p7577
aS'78.3679'
p7578
aa(lp7579
S'17.4965'
p7580
aS'78.3679'
p7581
aa(lp7582
S'17.4965'
p7583
aS'78.3679'
p7584
aa(lp7585
S'17.4965'
p7586
aS'78.3678'
p7587
aa(lp7588
S'17.4965'
p7589
aS'78.3678'
p7590
aa(lp7591
S'17.4965'
p7592
aS'78.3678'
p7593
aa(lp7594
S'17.4965'
p7595
aS'78.3678'
p7596
aa(lp7597
S'17.4965'
p7598
aS'78.3678'
p7599
aa(lp7600
S'17.4965'
p7601
aS'78.3678'
p7602
aa(lp7603
S'17.4965'
p7604
aS'78.3678'
p7605
aa(lp7606
S'17.4965'
p7607
aS'78.3678'
p7608
aa(lp7609
S'17.4965'
p7610
aS'78.3678'
p7611
aa(lp7612
S'17.4965'
p7613
aS'78.3678'
p7614
aa(lp7615
S'17.4965'
p7616
aS'78.3677'
p7617
aa(lp7618
S'17.4965'
p7619
aS'78.3677'
p7620
aa(lp7621
S'17.4965'
p7622
aS'78.3677'
p7623
aa(lp7624
S'17.4965'
p7625
aS'78.3677'
p7626
aa(lp7627
S'17.4965'
p7628
aS'78.3677'
p7629
aa(lp7630
S'17.4965'
p7631
aS'78.3677'
p7632
aa(lp7633
S'17.4965'
p7634
aS'78.3677'
p7635
aa(lp7636
S'17.4965'
p7637
aS'78.3677'
p7638
aa(lp7639
S'17.4965'
p7640
aS'78.3677'
p7641
aa(lp7642
S'17.4965'
p7643
aS'78.3677'
p7644
aa(lp7645
S'17.4965'
p7646
aS'78.3677'
p7647
aa(lp7648
S'17.4965'
p7649
aS'78.3676'
p7650
aa(lp7651
S'17.4965'
p7652
aS'78.3676'
p7653
aa(lp7654
S'17.4965'
p7655
aS'78.3676'
p7656
aa(lp7657
S'17.4965'
p7658
aS'78.3676'
p7659
aa(lp7660
S'17.4965'
p7661
aS'78.3676'
p7662
aa(lp7663
S'17.4965'
p7664
aS'78.3676'
p7665
aa(lp7666
S'17.4965'
p7667
aS'78.3676'
p7668
aa(lp7669
S'17.4965'
p7670
aS'78.3676'
p7671
aa(lp7672
S'17.4965'
p7673
aS'78.3676'
p7674
aa(lp7675
S'17.4965'
p7676
aS'78.3676'
p7677
aa(lp7678
S'17.4965'
p7679
aS'78.3676'
p7680
aa(lp7681
S'17.4965'
p7682
aS'78.3675'
p7683
aa(lp7684
S'17.4965'
p7685
aS'78.3675'
p7686
aa(lp7687
S'17.4965'
p7688
aS'78.3675'
p7689
aa(lp7690
S'17.4965'
p7691
aS'78.3675'
p7692
aa(lp7693
S'17.4965'
p7694
aS'78.3675'
p7695
aa(lp7696
S'17.4965'
p7697
aS'78.3675'
p7698
aa(lp7699
S'17.4965'
p7700
aS'78.3675'
p7701
aa(lp7702
S'17.4965'
p7703
aS'78.3675'
p7704
aa(lp7705
S'17.4965'
p7706
aS'78.3675'
p7707
aa(lp7708
S'17.4965'
p7709
aS'78.3675'
p7710
aa(lp7711
S'17.4965'
p7712
aS'78.3674'
p7713
aa(lp7714
S'17.4965'
p7715
aS'78.3674'
p7716
aa(lp7717
S'17.4965'
p7718
aS'78.3674'
p7719
aa(lp7720
S'17.4965'
p7721
aS'78.3674'
p7722
aa(lp7723
S'17.4965'
p7724
aS'78.3674'
p7725
aa(lp7726
S'17.4965'
p7727
aS'78.3674'
p7728
aa(lp7729
S'17.4965'
p7730
aS'78.3674'
p7731
aa(lp7732
S'17.4965'
p7733
aS'78.3674'
p7734
aa(lp7735
S'17.4965'
p7736
aS'78.3674'
p7737
aa(lp7738
S'17.4965'
p7739
aS'78.3674'
p7740
aa(lp7741
S'17.4965'
p7742
aS'78.3674'
p7743
aa(lp7744
S'17.4965'
p7745
aS'78.3673'
p7746
aa(lp7747
S'17.4965'
p7748
aS'78.3673'
p7749
aa(lp7750
S'17.4965'
p7751
aS'78.3673'
p7752
aa(lp7753
S'17.4965'
p7754
aS'78.3673'
p7755
aa(lp7756
S'17.4965'
p7757
aS'78.3673'
p7758
aa(lp7759
S'17.4965'
p7760
aS'78.3673'
p7761
aa(lp7762
S'17.4965'
p7763
aS'78.3673'
p7764
aa(lp7765
S'17.4965'
p7766
aS'78.3673'
p7767
aa(lp7768
S'17.4965'
p7769
aS'78.3673'
p7770
aa(lp7771
S'17.4965'
p7772
aS'78.3673'
p7773
aa(lp7774
S'17.4965'
p7775
aS'78.3673'
p7776
aa(lp7777
S'17.4965'
p7778
aS'78.3672'
p7779
aa(lp7780
S'17.4965'
p7781
aS'78.3672'
p7782
aa(lp7783
S'17.4965'
p7784
aS'78.3672'
p7785
aa(lp7786
S'17.4965'
p7787
aS'78.3672'
p7788
aa(lp7789
S'17.4965'
p7790
aS'78.3672'
p7791
aa(lp7792
S'17.4965'
p7793
aS'78.3672'
p7794
aa(lp7795
S'17.4965'
p7796
aS'78.3672'
p7797
aa(lp7798
S'17.4965'
p7799
aS'78.3672'
p7800
aa(lp7801
S'17.4965'
p7802
aS'78.3672'
p7803
aa(lp7804
S'17.4965'
p7805
aS'78.3672'
p7806
aa(lp7807
S'17.4965'
p7808
aS'78.3671'
p7809
aa(lp7810
S'17.4965'
p7811
aS'78.3671'
p7812
aa(lp7813
S'17.4965'
p7814
aS'78.3671'
p7815
aa(lp7816
S'17.4965'
p7817
aS'78.3671'
p7818
aa(lp7819
S'17.4965'
p7820
aS'78.3671'
p7821
aa(lp7822
S'17.4965'
p7823
aS'78.3671'
p7824
aa(lp7825
S'17.4965'
p7826
aS'78.3671'
p7827
aa(lp7828
S'17.4965'
p7829
aS'78.3671'
p7830
aa(lp7831
S'17.4965'
p7832
aS'78.3671'
p7833
aa(lp7834
S'17.4965'
p7835
aS'78.3671'
p7836
aa(lp7837
S'17.4965'
p7838
aS'78.3671'
p7839
aa(lp7840
S'17.4965'
p7841
aS'78.3670'
p7842
aa(lp7843
S'17.4965'
p7844
aS'78.3670'
p7845
aa(lp7846
S'17.4965'
p7847
aS'78.3670'
p7848
aa(lp7849
S'17.4965'
p7850
aS'78.3670'
p7851
aa(lp7852
S'17.4965'
p7853
aS'78.3670'
p7854
aa(lp7855
S'17.4965'
p7856
aS'78.3670'
p7857
aa(lp7858
S'17.4965'
p7859
aS'78.3670'
p7860
aa(lp7861
S'17.4965'
p7862
aS'78.3670'
p7863
aa(lp7864
S'17.4965'
p7865
aS'78.3670'
p7866
aa(lp7867
S'17.4965'
p7868
aS'78.3670'
p7869
aa(lp7870
S'17.4965'
p7871
aS'78.3669'
p7872
aa(lp7873
S'17.4965'
p7874
aS'78.3669'
p7875
aa(lp7876
S'17.4965'
p7877
aS'78.3669'
p7878
aa(lp7879
S'17.4965'
p7880
aS'78.3669'
p7881
aa(lp7882
S'17.4965'
p7883
aS'78.3669'
p7884
aa(lp7885
S'17.4965'
p7886
aS'78.3669'
p7887
aa(lp7888
S'17.4965'
p7889
aS'78.3669'
p7890
aa(lp7891
S'17.4965'
p7892
aS'78.3669'
p7893
aa(lp7894
S'17.4965'
p7895
aS'78.3669'
p7896
aa(lp7897
S'17.4965'
p7898
aS'78.3669'
p7899
aa(lp7900
S'17.4965'
p7901
aS'78.3669'
p7902
aa(lp7903
S'17.4965'
p7904
aS'78.3668'
p7905
aa(lp7906
S'17.4965'
p7907
aS'78.3668'
p7908
aa(lp7909
S'17.4965'
p7910
aS'78.3668'
p7911
aa(lp7912
S'17.4965'
p7913
aS'78.3668'
p7914
aa(lp7915
S'17.4965'
p7916
aS'78.3668'
p7917
aa(lp7918
S'17.4965'
p7919
aS'78.3668'
p7920
aa(lp7921
S'17.4965'
p7922
aS'78.3668'
p7923
aa(lp7924
S'17.4965'
p7925
aS'78.3668'
p7926
aa(lp7927
S'17.4965'
p7928
aS'78.3668'
p7929
aa(lp7930
S'17.4965'
p7931
aS'78.3668'
p7932
aa(lp7933
S'17.4965'
p7934
aS'78.3668'
p7935
aa(lp7936
S'17.4965'
p7937
aS'78.3667'
p7938
aa(lp7939
S'17.4965'
p7940
aS'78.3667'
p7941
aa(lp7942
S'17.4965'
p7943
aS'78.3667'
p7944
aa(lp7945
S'17.4965'
p7946
aS'78.3667'
p7947
aa(lp7948
S'17.4965'
p7949
aS'78.3667'
p7950
aa(lp7951
S'17.4965'
p7952
aS'78.3667'
p7953
aa(lp7954
S'17.4965'
p7955
aS'78.3667'
p7956
aa(lp7957
S'17.4965'
p7958
aS'78.3667'
p7959
aa(lp7960
S'17.4965'
p7961
aS'78.3667'
p7962
aa(lp7963
S'17.4965'
p7964
aS'78.3667'
p7965
aa(lp7966
S'17.4965'
p7967
aS'78.3666'
p7968
aa(lp7969
S'17.4965'
p7970
aS'78.3666'
p7971
aa(lp7972
S'17.4965'
p7973
aS'78.3666'
p7974
aa(lp7975
S'17.4965'
p7976
aS'78.3666'
p7977
aa(lp7978
S'17.4965'
p7979
aS'78.3666'
p7980
aa(lp7981
S'17.4965'
p7982
aS'78.3666'
p7983
aa(lp7984
S'17.4965'
p7985
aS'78.3666'
p7986
aa(lp7987
S'17.4965'
p7988
aS'78.3666'
p7989
aa(lp7990
S'17.4965'
p7991
aS'78.3666'
p7992
aa(lp7993
S'17.4965'
p7994
aS'78.3666'
p7995
aa(lp7996
S'17.4965'
p7997
aS'78.3666'
p7998
aa(lp7999
S'17.4965'
p8000
aS'78.3665'
p8001
aa(lp8002
S'17.4965'
p8003
aS'78.3665'
p8004
aa(lp8005
S'17.4965'
p8006
aS'78.3665'
p8007
aa(lp8008
S'17.4965'
p8009
aS'78.3665'
p8010
aa(lp8011
S'17.4965'
p8012
aS'78.3665'
p8013
aa(lp8014
S'17.4965'
p8015
aS'78.3665'
p8016
aa(lp8017
S'17.4965'
p8018
aS'78.3665'
p8019
aa(lp8020
S'17.4965'
p8021
aS'78.3665'
p8022
aa(lp8023
S'17.4965'
p8024
aS'78.3665'
p8025
aa(lp8026
S'17.4965'
p8027
aS'78.3665'
p8028
aa(lp8029
S'17.4965'
p8030
aS'78.3664'
p8031
aa(lp8032
S'17.4965'
p8033
aS'78.3664'
p8034
aa(lp8035
S'17.4965'
p8036
aS'78.3664'
p8037
aa(lp8038
S'17.4965'
p8039
aS'78.3664'
p8040
aa(lp8041
S'17.4965'
p8042
aS'78.3664'
p8043
aa(lp8044
S'17.4965'
p8045
aS'78.3664'
p8046
aa(lp8047
S'17.4965'
p8048
aS'78.3664'
p8049
aa(lp8050
S'17.4965'
p8051
aS'78.3664'
p8052
aa(lp8053
S'17.4965'
p8054
aS'78.3664'
p8055
aa(lp8056
S'17.4965'
p8057
aS'78.3664'
p8058
aa(lp8059
S'17.4965'
p8060
aS'78.3664'
p8061
aa(lp8062
S'17.4965'
p8063
aS'78.3663'
p8064
aa(lp8065
S'17.4965'
p8066
aS'78.3663'
p8067
aa(lp8068
S'17.4965'
p8069
aS'78.3663'
p8070
aa(lp8071
S'17.4965'
p8072
aS'78.3663'
p8073
aa(lp8074
S'17.4965'
p8075
aS'78.3663'
p8076
aa(lp8077
S'17.4965'
p8078
aS'78.3663'
p8079
aa(lp8080
S'17.4965'
p8081
aS'78.3663'
p8082
aa(lp8083
S'17.4965'
p8084
aS'78.3663'
p8085
aa(lp8086
S'17.4965'
p8087
aS'78.3663'
p8088
aa(lp8089
S'17.4965'
p8090
aS'78.3663'
p8091
aa(lp8092
S'17.4965'
p8093
aS'78.3663'
p8094
aa(lp8095
S'17.4965'
p8096
aS'78.3662'
p8097
aa(lp8098
S'17.4965'
p8099
aS'78.3662'
p8100
aa(lp8101
S'17.4965'
p8102
aS'78.3662'
p8103
aa(lp8104
S'17.4965'
p8105
aS'78.3662'
p8106
aa(lp8107
S'17.4965'
p8108
aS'78.3662'
p8109
aa(lp8110
S'17.4965'
p8111
aS'78.3662'
p8112
aa(lp8113
S'17.4965'
p8114
aS'78.3662'
p8115
aa(lp8116
S'17.4965'
p8117
aS'78.3662'
p8118
aa(lp8119
S'17.4965'
p8120
aS'78.3662'
p8121
aa(lp8122
S'17.4965'
p8123
aS'78.3662'
p8124
aa(lp8125
S'17.4965'
p8126
aS'78.3661'
p8127
aa(lp8128
S'17.4965'
p8129
aS'78.3661'
p8130
aa(lp8131
S'17.4965'
p8132
aS'78.3661'
p8133
aa(lp8134
S'17.4965'
p8135
aS'78.3661'
p8136
aa(lp8137
S'17.4965'
p8138
aS'78.3661'
p8139
aa(lp8140
S'17.4965'
p8141
aS'78.3661'
p8142
aa(lp8143
S'17.4965'
p8144
aS'78.3661'
p8145
aa(lp8146
S'17.4965'
p8147
aS'78.3661'
p8148
aa(lp8149
S'17.4965'
p8150
aS'78.3661'
p8151
aa(lp8152
S'17.4965'
p8153
aS'78.3661'
p8154
aa(lp8155
S'17.4965'
p8156
aS'78.3661'
p8157
aa(lp8158
S'17.4965'
p8159
aS'78.3660'
p8160
aa(lp8161
S'17.4965'
p8162
aS'78.3660'
p8163
aa(lp8164
S'17.4965'
p8165
aS'78.3660'
p8166
aa(lp8167
S'17.4965'
p8168
aS'78.3660'
p8169
aa(lp8170
S'17.4965'
p8171
aS'78.3660'
p8172
aa(lp8173
S'17.4965'
p8174
aS'78.3660'
p8175
aa(lp8176
S'17.4965'
p8177
aS'78.3660'
p8178
aa(lp8179
S'17.4965'
p8180
aS'78.3660'
p8181
aa(lp8182
S'17.4965'
p8183
aS'78.3660'
p8184
aa(lp8185
S'17.4965'
p8186
aS'78.3660'
p8187
aa(lp8188
S'17.4965'
p8189
aS'78.3660'
p8190
aa(lp8191
S'17.4965'
p8192
aS'78.3659'
p8193
aa(lp8194
S'17.4965'
p8195
aS'78.3659'
p8196
aa(lp8197
S'17.4965'
p8198
aS'78.3659'
p8199
aa(lp8200
S'17.4965'
p8201
aS'78.3659'
p8202
aa(lp8203
S'17.4965'
p8204
aS'78.3659'
p8205
aa(lp8206
S'17.4965'
p8207
aS'78.3659'
p8208
aa(lp8209
S'17.4965'
p8210
aS'78.3659'
p8211
aa(lp8212
S'17.4965'
p8213
aS'78.3659'
p8214
aa(lp8215
S'17.4965'
p8216
aS'78.3659'
p8217
aa(lp8218
S'17.4965'
p8219
aS'78.3659'
p8220
aa(lp8221
S'17.4965'
p8222
aS'78.3658'
p8223
aa(lp8224
S'17.4965'
p8225
aS'78.3658'
p8226
aa(lp8227
S'17.4965'
p8228
aS'78.3658'
p8229
aa(lp8230
S'17.4965'
p8231
aS'78.3658'
p8232
aa(lp8233
S'17.4965'
p8234
aS'78.3658'
p8235
aa(lp8236
S'17.4965'
p8237
aS'78.3658'
p8238
aa(lp8239
S'17.4965'
p8240
aS'78.3658'
p8241
aa(lp8242
S'17.4965'
p8243
aS'78.3658'
p8244
aa(lp8245
S'17.4965'
p8246
aS'78.3658'
p8247
aa(lp8248
S'17.4965'
p8249
aS'78.3658'
p8250
aa(lp8251
S'17.4965'
p8252
aS'78.3658'
p8253
aa(lp8254
S'17.4965'
p8255
aS'78.3657'
p8256
aa(lp8257
S'17.4965'
p8258
aS'78.3657'
p8259
aa(lp8260
S'17.4965'
p8261
aS'78.3657'
p8262
aa(lp8263
S'17.4965'
p8264
aS'78.3657'
p8265
aa(lp8266
S'17.4965'
p8267
aS'78.3657'
p8268
aa(lp8269
S'17.4965'
p8270
aS'78.3657'
p8271
aa(lp8272
S'17.4965'
p8273
aS'78.3657'
p8274
aa(lp8275
S'17.4965'
p8276
aS'78.3657'
p8277
aa(lp8278
S'17.4965'
p8279
aS'78.3657'
p8280
aa(lp8281
S'17.4965'
p8282
aS'78.3657'
p8283
aa(lp8284
S'17.4965'
p8285
aS'78.3656'
p8286
aa(lp8287
S'17.4965'
p8288
aS'78.3656'
p8289
aa(lp8290
S'17.4965'
p8291
aS'78.3656'
p8292
aa(lp8293
S'17.4965'
p8294
aS'78.3656'
p8295
aa(lp8296
S'17.4965'
p8297
aS'78.3656'
p8298
aa(lp8299
S'17.4965'
p8300
aS'78.3656'
p8301
aa(lp8302
S'17.4965'
p8303
aS'78.3656'
p8304
aa(lp8305
S'17.4965'
p8306
aS'78.3656'
p8307
aa(lp8308
S'17.4965'
p8309
aS'78.3656'
p8310
aa(lp8311
S'17.4965'
p8312
aS'78.3656'
p8313
aa(lp8314
S'17.4965'
p8315
aS'78.3656'
p8316
aa(lp8317
S'17.4965'
p8318
aS'78.3655'
p8319
aa(lp8320
S'17.4965'
p8321
aS'78.3655'
p8322
aa(lp8323
S'17.4965'
p8324
aS'78.3655'
p8325
aa(lp8326
S'17.4965'
p8327
aS'78.3655'
p8328
aa(lp8329
S'17.4965'
p8330
aS'78.3655'
p8331
aa(lp8332
S'17.4965'
p8333
aS'78.3655'
p8334
aa(lp8335
S'17.4965'
p8336
aS'78.3655'
p8337
aa(lp8338
S'17.4965'
p8339
aS'78.3655'
p8340
aa(lp8341
S'17.4965'
p8342
aS'78.3655'
p8343
aa(lp8344
S'17.4965'
p8345
aS'78.3655'
p8346
aa(lp8347
S'17.4965'
p8348
aS'78.3655'
p8349
aa(lp8350
S'17.4965'
p8351
aS'78.3654'
p8352
aa(lp8353
S'17.4965'
p8354
aS'78.3654'
p8355
aa(lp8356
S'17.4965'
p8357
aS'78.3654'
p8358
aa(lp8359
S'17.4965'
p8360
aS'78.3654'
p8361
aa(lp8362
S'17.4965'
p8363
aS'78.3654'
p8364
aa(lp8365
S'17.4965'
p8366
aS'78.3654'
p8367
aa(lp8368
S'17.4965'
p8369
aS'78.3654'
p8370
aa(lp8371
S'17.4965'
p8372
aS'78.3654'
p8373
aa(lp8374
S'17.4965'
p8375
aS'78.3654'
p8376
aa(lp8377
S'17.4965'
p8378
aS'78.3654'
p8379
aa(lp8380
S'17.4965'
p8381
aS'78.3653'
p8382
aa(lp8383
S'17.4965'
p8384
aS'78.3653'
p8385
aa(lp8386
S'17.4965'
p8387
aS'78.3653'
p8388
aa(lp8389
S'17.4965'
p8390
aS'78.3653'
p8391
aa(lp8392
S'17.4965'
p8393
aS'78.3653'
p8394
aa(lp8395
S'17.4965'
p8396
aS'78.3653'
p8397
aa(lp8398
S'17.4965'
p8399
aS'78.3653'
p8400
aa(lp8401
S'17.4965'
p8402
aS'78.3653'
p8403
aa(lp8404
S'17.4965'
p8405
aS'78.3653'
p8406
aa(lp8407
S'17.4965'
p8408
aS'78.3653'
p8409
aa(lp8410
S'17.4965'
p8411
aS'78.3653'
p8412
aa(lp8413
S'17.4965'
p8414
aS'78.3652'
p8415
aa(lp8416
S'17.4965'
p8417
aS'78.3652'
p8418
aa(lp8419
S'17.4965'
p8420
aS'78.3652'
p8421
aa(lp8422
S'17.4965'
p8423
aS'78.3652'
p8424
aa(lp8425
S'17.4965'
p8426
aS'78.3652'
p8427
aa(lp8428
S'17.4965'
p8429
aS'78.3652'
p8430
aa(lp8431
S'17.4965'
p8432
aS'78.3652'
p8433
aa(lp8434
S'17.4965'
p8435
aS'78.3652'
p8436
aa(lp8437
S'17.4965'
p8438
aS'78.3652'
p8439
aa(lp8440
S'17.4965'
p8441
aS'78.3652'
p8442
aa(lp8443
S'17.4965'
p8444
aS'78.3652'
p8445
aa(lp8446
S'17.4965'
p8447
aS'78.3651'
p8448
aa(lp8449
S'17.4965'
p8450
aS'78.3651'
p8451
aa(lp8452
S'17.4965'
p8453
aS'78.3651'
p8454
aa(lp8455
S'17.4965'
p8456
aS'78.3651'
p8457
aa(lp8458
S'17.4965'
p8459
aS'78.3651'
p8460
aa(lp8461
S'17.4965'
p8462
aS'78.3651'
p8463
aa(lp8464
S'17.4965'
p8465
aS'78.3651'
p8466
aa(lp8467
S'17.4965'
p8468
aS'78.3651'
p8469
aa(lp8470
S'17.4965'
p8471
aS'78.3651'
p8472
aa(lp8473
S'17.4965'
p8474
aS'78.3651'
p8475
aa(lp8476
S'17.4965'
p8477
aS'78.3650'
p8478
aa(lp8479
S'17.4965'
p8480
aS'78.3650'
p8481
aa(lp8482
S'17.4965'
p8483
aS'78.3650'
p8484
aa(lp8485
S'17.4965'
p8486
aS'78.3650'
p8487
aa(lp8488
S'17.4965'
p8489
aS'78.3650'
p8490
aa(lp8491
S'17.4965'
p8492
aS'78.3650'
p8493
aa(lp8494
S'17.4965'
p8495
aS'78.3650'
p8496
aa(lp8497
S'17.4965'
p8498
aS'78.3650'
p8499
aa(lp8500
S'17.4965'
p8501
aS'78.3650'
p8502
aa(lp8503
S'17.4965'
p8504
aS'78.3650'
p8505
aa(lp8506
S'17.4965'
p8507
aS'78.3650'
p8508
aa(lp8509
S'17.4965'
p8510
aS'78.3649'
p8511
aa(lp8512
S'17.4965'
p8513
aS'78.3649'
p8514
aa(lp8515
S'17.4965'
p8516
aS'78.3649'
p8517
aa(lp8518
S'17.4965'
p8519
aS'78.3649'
p8520
aa(lp8521
S'17.4965'
p8522
aS'78.3649'
p8523
aa(lp8524
S'17.4965'
p8525
aS'78.3649'
p8526
aa(lp8527
S'17.4965'
p8528
aS'78.3649'
p8529
aa(lp8530
S'17.4965'
p8531
aS'78.3649'
p8532
aa(lp8533
S'17.4965'
p8534
aS'78.3649'
p8535
aa(lp8536
S'17.4965'
p8537
aS'78.3649'
p8538
aa(lp8539
S'17.4965'
p8540
aS'78.3648'
p8541
aa(lp8542
S'17.4965'
p8543
aS'78.3648'
p8544
aa(lp8545
S'17.4965'
p8546
aS'78.3648'
p8547
aa(lp8548
S'17.4965'
p8549
aS'78.3648'
p8550
aa(lp8551
S'17.4965'
p8552
aS'78.3648'
p8553
aa(lp8554
S'17.4965'
p8555
aS'78.3648'
p8556
aa(lp8557
S'17.4965'
p8558
aS'78.3648'
p8559
aa(lp8560
S'17.4965'
p8561
aS'78.3648'
p8562
aa(lp8563
S'17.4965'
p8564
aS'78.3648'
p8565
aa(lp8566
S'17.4965'
p8567
aS'78.3648'
p8568
aa(lp8569
S'17.4965'
p8570
aS'78.3648'
p8571
aa(lp8572
S'17.4965'
p8573
aS'78.3647'
p8574
aa(lp8575
S'17.4965'
p8576
aS'78.3647'
p8577
aa(lp8578
S'17.4965'
p8579
aS'78.3647'
p8580
aa(lp8581
S'17.4965'
p8582
aS'78.3647'
p8583
aa(lp8584
S'17.4965'
p8585
aS'78.3647'
p8586
aa(lp8587
S'17.4965'
p8588
aS'78.3647'
p8589
aa(lp8590
S'17.4965'
p8591
aS'78.3647'
p8592
aa(lp8593
S'17.4965'
p8594
aS'78.3647'
p8595
aa(lp8596
S'17.4965'
p8597
aS'78.3647'
p8598
aa(lp8599
S'17.4965'
p8600
aS'78.3647'
p8601
aa(lp8602
S'17.4965'
p8603
aS'78.3647'
p8604
aa(lp8605
S'17.4965'
p8606
aS'78.3646'
p8607
aa(lp8608
S'17.4965'
p8609
aS'78.3646'
p8610
aa(lp8611
S'17.4965'
p8612
aS'78.3646'
p8613
aa(lp8614
S'17.4965'
p8615
aS'78.3646'
p8616
aa(lp8617
S'17.4965'
p8618
aS'78.3646'
p8619
aa(lp8620
S'17.4965'
p8621
aS'78.3646'
p8622
aa(lp8623
S'17.4965'
p8624
aS'78.3646'
p8625
aa(lp8626
S'17.4965'
p8627
aS'78.3646'
p8628
aa(lp8629
S'17.4965'
p8630
aS'78.3646'
p8631
aa(lp8632
S'17.4965'
p8633
aS'78.3646'
p8634
aa(lp8635
S'17.4965'
p8636
aS'78.3645'
p8637
aa(lp8638
S'17.4965'
p8639
aS'78.3645'
p8640
aa(lp8641
S'17.4965'
p8642
aS'78.3645'
p8643
aa(lp8644
S'17.4965'
p8645
aS'78.3645'
p8646
aa(lp8647
S'17.4965'
p8648
aS'78.3645'
p8649
aa(lp8650
S'17.4965'
p8651
aS'78.3645'
p8652
aa(lp8653
S'17.4965'
p8654
aS'78.3645'
p8655
aa(lp8656
S'17.4965'
p8657
aS'78.3645'
p8658
aa(lp8659
S'17.4965'
p8660
aS'78.3645'
p8661
aa(lp8662
S'17.4965'
p8663
aS'78.3645'
p8664
aa(lp8665
S'17.4965'
p8666
aS'78.3645'
p8667
aa(lp8668
S'17.4965'
p8669
aS'78.3644'
p8670
aa(lp8671
S'17.4965'
p8672
aS'78.3644'
p8673
aa(lp8674
S'17.4965'
p8675
aS'78.3644'
p8676
aa(lp8677
S'17.4965'
p8678
aS'78.3644'
p8679
aa(lp8680
S'17.4965'
p8681
aS'78.3644'
p8682
aa(lp8683
S'17.4965'
p8684
aS'78.3644'
p8685
aa(lp8686
S'17.4965'
p8687
aS'78.3644'
p8688
aa(lp8689
S'17.4965'
p8690
aS'78.3644'
p8691
aa(lp8692
S'17.4965'
p8693
aS'78.3644'
p8694
aa(lp8695
S'17.4965'
p8696
aS'78.3644'
p8697
aa(lp8698
S'17.4965'
p8699
aS'78.3643'
p8700
aa(lp8701
S'17.4965'
p8702
aS'78.3643'
p8703
aa(lp8704
S'17.4965'
p8705
aS'78.3643'
p8706
aa(lp8707
S'17.4965'
p8708
aS'78.3643'
p8709
aa(lp8710
S'17.4965'
p8711
aS'78.3643'
p8712
aa(lp8713
S'17.4965'
p8714
aS'78.3643'
p8715
aa(lp8716
S'17.4965'
p8717
aS'78.3643'
p8718
aa(lp8719
S'17.4965'
p8720
aS'78.3643'
p8721
aa(lp8722
S'17.4965'
p8723
aS'78.3643'
p8724
aa(lp8725
S'17.4965'
p8726
aS'78.3643'
p8727
aa(lp8728
S'17.4965'
p8729
aS'78.3643'
p8730
aa(lp8731
S'17.4965'
p8732
aS'78.3642'
p8733
aa(lp8734
S'17.4965'
p8735
aS'78.3642'
p8736
aa(lp8737
S'17.4965'
p8738
aS'78.3642'
p8739
aa(lp8740
S'17.4965'
p8741
aS'78.3642'
p8742
aa(lp8743
S'17.4965'
p8744
aS'78.3642'
p8745
aa(lp8746
S'17.4965'
p8747
aS'78.3642'
p8748
aa(lp8749
S'17.4965'
p8750
aS'78.3642'
p8751
aa(lp8752
S'17.4965'
p8753
aS'78.3642'
p8754
aa(lp8755
S'17.4965'
p8756
aS'78.3642'
p8757
aa(lp8758
S'17.4965'
p8759
aS'78.3642'
p8760
aa(lp8761
S'17.4965'
p8762
aS'78.3642'
p8763
aa(lp8764
S'17.4965'
p8765
aS'78.3641'
p8766
aa(lp8767
S'17.4965'
p8768
aS'78.3641'
p8769
aa(lp8770
S'17.4965'
p8771
aS'78.3641'
p8772
aa(lp8773
S'17.4965'
p8774
aS'78.3641'
p8775
aa(lp8776
S'17.4965'
p8777
aS'78.3641'
p8778
aa(lp8779
S'17.4965'
p8780
aS'78.3641'
p8781
aa(lp8782
S'17.4965'
p8783
aS'78.3641'
p8784
aa(lp8785
S'17.4965'
p8786
aS'78.3641'
p8787
aa(lp8788
S'17.4965'
p8789
aS'78.3641'
p8790
aa(lp8791
S'17.4965'
p8792
aS'78.3641'
p8793
aa(lp8794
S'17.4965'
p8795
aS'78.3640'
p8796
aa(lp8797
S'17.4965'
p8798
aS'78.3640'
p8799
aa(lp8800
S'17.4965'
p8801
aS'78.3640'
p8802
aa(lp8803
S'17.4965'
p8804
aS'78.3640'
p8805
aa(lp8806
S'17.4965'
p8807
aS'78.3640'
p8808
aa(lp8809
S'17.4965'
p8810
aS'78.3640'
p8811
aa(lp8812
S'17.4965'
p8813
aS'78.3640'
p8814
aa(lp8815
S'17.4965'
p8816
aS'78.3640'
p8817
aa(lp8818
S'17.4965'
p8819
aS'78.3640'
p8820
aa(lp8821
S'17.4965'
p8822
aS'78.3640'
p8823
aa(lp8824
S'17.4965'
p8825
aS'78.3640'
p8826
aa(lp8827
S'17.4965'
p8828
aS'78.3639'
p8829
aa(lp8830
S'17.4965'
p8831
aS'78.3639'
p8832
aa(lp8833
S'17.4965'
p8834
aS'78.3639'
p8835
aa(lp8836
S'17.4965'
p8837
aS'78.3639'
p8838
aa(lp8839
S'17.4965'
p8840
aS'78.3639'
p8841
aa(lp8842
S'17.4965'
p8843
aS'78.3639'
p8844
aa(lp8845
S'17.4965'
p8846
aS'78.3639'
p8847
aa(lp8848
S'17.4965'
p8849
aS'78.3639'
p8850
aa(lp8851
S'17.4965'
p8852
aS'78.3639'
p8853
aa(lp8854
S'17.4965'
p8855
aS'78.3639'
p8856
aa(lp8857
S'17.4965'
p8858
aS'78.3639'
p8859
aa(lp8860
S'17.4965'
p8861
aS'78.3638'
p8862
aa(lp8863
S'17.4965'
p8864
aS'78.3638'
p8865
aa(lp8866
S'17.4965'
p8867
aS'78.3638'
p8868
aa(lp8869
S'17.4965'
p8870
aS'78.3638'
p8871
aa(lp8872
S'17.4965'
p8873
aS'78.3638'
p8874
aa(lp8875
S'17.4965'
p8876
aS'78.3638'
p8877
aa(lp8878
S'17.4965'
p8879
aS'78.3638'
p8880
aa(lp8881
S'17.4965'
p8882
aS'78.3638'
p8883
aa(lp8884
S'17.4965'
p8885
aS'78.3638'
p8886
aa(lp8887
S'17.4965'
p8888
aS'78.3638'
p8889
aa(lp8890
S'17.4965'
p8891
aS'78.3637'
p8892
aa(lp8893
S'17.4965'
p8894
aS'78.3637'
p8895
aa(lp8896
S'17.4965'
p8897
aS'78.3637'
p8898
aa(lp8899
S'17.4965'
p8900
aS'78.3637'
p8901
aa(lp8902
S'17.4965'
p8903
aS'78.3637'
p8904
aa(lp8905
S'17.4965'
p8906
aS'78.3637'
p8907
aa(lp8908
S'17.4965'
p8909
aS'78.3637'
p8910
aa(lp8911
S'17.4965'
p8912
aS'78.3637'
p8913
aa(lp8914
S'17.4965'
p8915
aS'78.3637'
p8916
aa(lp8917
S'17.4965'
p8918
aS'78.3637'
p8919
aa(lp8920
S'17.4965'
p8921
aS'78.3637'
p8922
aa(lp8923
S'17.4965'
p8924
aS'78.3636'
p8925
aa(lp8926
S'17.4965'
p8927
aS'78.3636'
p8928
aa(lp8929
S'17.4965'
p8930
aS'78.3636'
p8931
aa(lp8932
S'17.4965'
p8933
aS'78.3636'
p8934
aa(lp8935
S'17.4965'
p8936
aS'78.3636'
p8937
aa(lp8938
S'17.4965'
p8939
aS'78.3636'
p8940
aa(lp8941
S'17.4965'
p8942
aS'78.3636'
p8943
aa(lp8944
S'17.4965'
p8945
aS'78.3636'
p8946
aa(lp8947
S'17.4965'
p8948
aS'78.3636'
p8949
aa(lp8950
S'17.4965'
p8951
aS'78.3636'
p8952
aa(lp8953
S'17.4965'
p8954
aS'78.3635'
p8955
aa(lp8956
S'17.4965'
p8957
aS'78.3635'
p8958
aa(lp8959
S'17.4965'
p8960
aS'78.3635'
p8961
aa(lp8962
S'17.4965'
p8963
aS'78.3635'
p8964
aa(lp8965
S'17.4965'
p8966
aS'78.3635'
p8967
aa(lp8968
S'17.4965'
p8969
aS'78.3635'
p8970
aa(lp8971
S'17.4965'
p8972
aS'78.3635'
p8973
aa(lp8974
S'17.4965'
p8975
aS'78.3635'
p8976
aa(lp8977
S'17.4965'
p8978
aS'78.3635'
p8979
aa(lp8980
S'17.4965'
p8981
aS'78.3635'
p8982
aa(lp8983
S'17.4965'
p8984
aS'78.3635'
p8985
aa(lp8986
S'17.4965'
p8987
aS'78.3634'
p8988
aa(lp8989
S'17.4965'
p8990
aS'78.3634'
p8991
aa(lp8992
S'17.4965'
p8993
aS'78.3634'
p8994
aa(lp8995
S'17.4965'
p8996
aS'78.3634'
p8997
aa(lp8998
S'17.4965'
p8999
aS'78.3634'
p9000
aa(lp9001
S'17.4965'
p9002
aS'78.3634'
p9003
aa(lp9004
S'17.4965'
p9005
aS'78.3634'
p9006
aa(lp9007
S'17.4965'
p9008
aS'78.3634'
p9009
aa(lp9010
S'17.4965'
p9011
aS'78.3634'
p9012
aa(lp9013
S'17.4965'
p9014
aS'78.3634'
p9015
aa(lp9016
S'17.4965'
p9017
aS'78.3634'
p9018
aa(lp9019
S'17.4965'
p9020
aS'78.3633'
p9021
aa(lp9022
S'17.4965'
p9023
aS'78.3633'
p9024
aa(lp9025
S'17.4965'
p9026
aS'78.3633'
p9027
aa(lp9028
S'17.4965'
p9029
aS'78.3633'
p9030
aa(lp9031
S'17.4965'
p9032
aS'78.3633'
p9033
aa(lp9034
S'17.4965'
p9035
aS'78.3633'
p9036
aa(lp9037
S'17.4965'
p9038
aS'78.3633'
p9039
aa(lp9040
S'17.4965'
p9041
aS'78.3633'
p9042
aa(lp9043
S'17.4965'
p9044
aS'78.3633'
p9045
aa(lp9046
S'17.4965'
p9047
aS'78.3633'
p9048
aa(lp9049
S'17.4965'
p9050
aS'78.3632'
p9051
aa(lp9052
S'17.4965'
p9053
aS'78.3632'
p9054
aa(lp9055
S'17.4965'
p9056
aS'78.3632'
p9057
aa(lp9058
S'17.4965'
p9059
aS'78.3632'
p9060
aa(lp9061
S'17.4965'
p9062
aS'78.3632'
p9063
aa(lp9064
S'17.4965'
p9065
aS'78.3632'
p9066
aa(lp9067
S'17.4965'
p9068
aS'78.3632'
p9069
aa(lp9070
S'17.4965'
p9071
aS'78.3632'
p9072
aa(lp9073
S'17.4965'
p9074
aS'78.3632'
p9075
aa(lp9076
S'17.4965'
p9077
aS'78.3632'
p9078
aa(lp9079
S'17.4965'
p9080
aS'78.3632'
p9081
aa(lp9082
S'17.4965'
p9083
aS'78.3631'
p9084
aa(lp9085
S'17.4965'
p9086
aS'78.3631'
p9087
aa(lp9088
S'17.4965'
p9089
aS'78.3631'
p9090
aa(lp9091
S'17.4965'
p9092
aS'78.3631'
p9093
aa(lp9094
S'17.4965'
p9095
aS'78.3631'
p9096
aa(lp9097
S'17.4965'
p9098
aS'78.3631'
p9099
aa(lp9100
S'17.4965'
p9101
aS'78.3631'
p9102
aa(lp9103
S'17.4965'
p9104
aS'78.3631'
p9105
aa(lp9106
S'17.4965'
p9107
aS'78.3631'
p9108
aa(lp9109
S'17.4965'
p9110
aS'78.3631'
p9111
aa(lp9112
S'17.4965'
p9113
aS'78.3631'
p9114
aa(lp9115
S'17.4965'
p9116
aS'78.3630'
p9117
aa(lp9118
S'17.4965'
p9119
aS'78.3630'
p9120
aa(lp9121
S'17.4965'
p9122
aS'78.3630'
p9123
aa(lp9124
S'17.4965'
p9125
aS'78.3630'
p9126
aa(lp9127
S'17.4964'
p9128
aS'78.3630'
p9129
aa(lp9130
S'17.4964'
p9131
aS'78.3630'
p9132
aa(lp9133
S'17.4964'
p9134
aS'78.3630'
p9135
aa(lp9136
S'17.4964'
p9137
aS'78.3630'
p9138
aa(lp9139
S'17.4964'
p9140
aS'78.3630'
p9141
aa(lp9142
S'17.4964'
p9143
aS'78.3630'
p9144
aa(lp9145
S'17.4964'
p9146
aS'78.3629'
p9147
aa(lp9148
S'17.4964'
p9149
aS'78.3629'
p9150
aa(lp9151
S'17.4964'
p9152
aS'78.3629'
p9153
aa(lp9154
S'17.4964'
p9155
aS'78.3629'
p9156
aa(lp9157
S'17.4964'
p9158
aS'78.3629'
p9159
aa(lp9160
S'17.4964'
p9161
aS'78.3629'
p9162
aa(lp9163
S'17.4964'
p9164
aS'78.3629'
p9165
aa(lp9166
S'17.4964'
p9167
aS'78.3629'
p9168
aa(lp9169
S'17.4964'
p9170
aS'78.3629'
p9171
aa(lp9172
S'17.4964'
p9173
aS'78.3629'
p9174
aa(lp9175
S'17.4964'
p9176
aS'78.3629'
p9177
aa(lp9178
S'17.4964'
p9179
aS'78.3628'
p9180
aa(lp9181
S'17.4964'
p9182
aS'78.3628'
p9183
aa(lp9184
S'17.4964'
p9185
aS'78.3628'
p9186
aa(lp9187
S'17.4964'
p9188
aS'78.3628'
p9189
aa(lp9190
S'17.4964'
p9191
aS'78.3628'
p9192
aa(lp9193
S'17.4964'
p9194
aS'78.3628'
p9195
aa(lp9196
S'17.4964'
p9197
aS'78.3628'
p9198
aa(lp9199
S'17.4964'
p9200
aS'78.3628'
p9201
aa(lp9202
S'17.4964'
p9203
aS'78.3628'
p9204
aa(lp9205
S'17.4964'
p9206
aS'78.3628'
p9207
aa(lp9208
S'17.4964'
p9209
aS'78.3627'
p9210
aa(lp9211
S'17.4964'
p9212
aS'78.3627'
p9213
aa(lp9214
S'17.4964'
p9215
aS'78.3627'
p9216
aa(lp9217
S'17.4964'
p9218
aS'78.3627'
p9219
aa(lp9220
S'17.4964'
p9221
aS'78.3627'
p9222
aa(lp9223
S'17.4964'
p9224
aS'78.3627'
p9225
aa(lp9226
S'17.4964'
p9227
aS'78.3627'
p9228
aa(lp9229
S'17.4964'
p9230
aS'78.3627'
p9231
aa(lp9232
S'17.4964'
p9233
aS'78.3627'
p9234
aa(lp9235
S'17.4964'
p9236
aS'78.3627'
p9237
aa(lp9238
S'17.4964'
p9239
aS'78.3627'
p9240
aa(lp9241
S'17.4964'
p9242
aS'78.3626'
p9243
aa(lp9244
S'17.4964'
p9245
aS'78.3626'
p9246
aa(lp9247
S'17.4964'
p9248
aS'78.3626'
p9249
aa(lp9250
S'17.4964'
p9251
aS'78.3626'
p9252
aa(lp9253
S'17.4964'
p9254
aS'78.3626'
p9255
aa(lp9256
S'17.4964'
p9257
aS'78.3626'
p9258
aa(lp9259
S'17.4964'
p9260
aS'78.3626'
p9261
aa(lp9262
S'17.4964'
p9263
aS'78.3626'
p9264
aa(lp9265
S'17.4964'
p9266
aS'78.3626'
p9267
aa(lp9268
S'17.4964'
p9269
aS'78.3626'
p9270
aa(lp9271
S'17.4964'
p9272
aS'78.3626'
p9273
aa(lp9274
S'17.4964'
p9275
aS'78.3625'
p9276
aa(lp9277
S'17.4964'
p9278
aS'78.3625'
p9279
aa(lp9280
S'17.4964'
p9281
aS'78.3625'
p9282
aa(lp9283
S'17.4964'
p9284
aS'78.3625'
p9285
aa(lp9286
S'17.4964'
p9287
aS'78.3625'
p9288
aa(lp9289
S'17.4964'
p9290
aS'78.3625'
p9291
aa(lp9292
S'17.4964'
p9293
aS'78.3625'
p9294
aa(lp9295
S'17.4964'
p9296
aS'78.3625'
p9297
aa(lp9298
S'17.4964'
p9299
aS'78.3625'
p9300
aa(lp9301
S'17.4964'
p9302
aS'78.3625'
p9303
aa(lp9304
S'17.4964'
p9305
aS'78.3624'
p9306
aa(lp9307
S'17.4964'
p9308
aS'78.3624'
p9309
aa(lp9310
S'17.4964'
p9311
aS'78.3624'
p9312
aa(lp9313
S'17.4964'
p9314
aS'78.3624'
p9315
aa(lp9316
S'17.4964'
p9317
aS'78.3624'
p9318
aa(lp9319
S'17.4964'
p9320
aS'78.3624'
p9321
aa(lp9322
S'17.4964'
p9323
aS'78.3624'
p9324
aa(lp9325
S'17.4964'
p9326
aS'78.3624'
p9327
aa(lp9328
S'17.4964'
p9329
aS'78.3624'
p9330
aa(lp9331
S'17.4964'
p9332
aS'78.3624'
p9333
aa(lp9334
S'17.4964'
p9335
aS'78.3624'
p9336
aa(lp9337
S'17.4964'
p9338
aS'78.3623'
p9339
aa(lp9340
S'17.4964'
p9341
aS'78.3623'
p9342
aa(lp9343
S'17.4964'
p9344
aS'78.3623'
p9345
aa(lp9346
S'17.4964'
p9347
aS'78.3623'
p9348
aa(lp9349
S'17.4964'
p9350
aS'78.3623'
p9351
aa(lp9352
S'17.4964'
p9353
aS'78.3623'
p9354
aa(lp9355
S'17.4964'
p9356
aS'78.3623'
p9357
aa(lp9358
S'17.4964'
p9359
aS'78.3623'
p9360
aa(lp9361
S'17.4964'
p9362
aS'78.3623'
p9363
aa(lp9364
S'17.4964'
p9365
aS'78.3623'
p9366
aa(lp9367
S'17.4964'
p9368
aS'78.3622'
p9369
aa(lp9370
S'17.4964'
p9371
aS'78.3622'
p9372
aa(lp9373
S'17.4964'
p9374
aS'78.3622'
p9375
aa(lp9376
S'17.4964'
p9377
aS'78.3622'
p9378
aa(lp9379
S'17.4964'
p9380
aS'78.3622'
p9381
aa(lp9382
S'17.4964'
p9383
aS'78.3622'
p9384
aa(lp9385
S'17.4964'
p9386
aS'78.3622'
p9387
aa(lp9388
S'17.4964'
p9389
aS'78.3622'
p9390
aa(lp9391
S'17.4964'
p9392
aS'78.3622'
p9393
aa(lp9394
S'17.4964'
p9395
aS'78.3622'
p9396
aa(lp9397
S'17.4964'
p9398
aS'78.3622'
p9399
aa(lp9400
S'17.4964'
p9401
aS'78.3621'
p9402
aa(lp9403
S'17.4964'
p9404
aS'78.3621'
p9405
aa(lp9406
S'17.4964'
p9407
aS'78.3621'
p9408
aa(lp9409
S'17.4964'
p9410
aS'78.3621'
p9411
aa(lp9412
S'17.4964'
p9413
aS'78.3621'
p9414
aa(lp9415
S'17.4964'
p9416
aS'78.3621'
p9417
aa(lp9418
S'17.4964'
p9419
aS'78.3621'
p9420
aa(lp9421
S'17.4964'
p9422
aS'78.3621'
p9423
aa(lp9424
S'17.4964'
p9425
aS'78.3621'
p9426
aa(lp9427
S'17.4964'
p9428
aS'78.3621'
p9429
aa(lp9430
S'17.4964'
p9431
aS'78.3621'
p9432
aa(lp9433
S'17.4964'
p9434
aS'78.3620'
p9435
aa(lp9436
S'17.4964'
p9437
aS'78.3620'
p9438
aa(lp9439
S'17.4964'
p9440
aS'78.3620'
p9441
aa(lp9442
S'17.4964'
p9443
aS'78.3620'
p9444
aa(lp9445
S'17.4964'
p9446
aS'78.3620'
p9447
aa(lp9448
S'17.4964'
p9449
aS'78.3620'
p9450
aa(lp9451
S'17.4964'
p9452
aS'78.3620'
p9453
aa(lp9454
S'17.4964'
p9455
aS'78.3620'
p9456
aa(lp9457
S'17.4964'
p9458
aS'78.3620'
p9459
aa(lp9460
S'17.4964'
p9461
aS'78.3620'
p9462
aa(lp9463
S'17.4964'
p9464
aS'78.3619'
p9465
aa(lp9466
S'17.4964'
p9467
aS'78.3619'
p9468
aa(lp9469
S'17.4964'
p9470
aS'78.3619'
p9471
aa(lp9472
S'17.4964'
p9473
aS'78.3619'
p9474
aa(lp9475
S'17.4964'
p9476
aS'78.3619'
p9477
aa(lp9478
S'17.4964'
p9479
aS'78.3619'
p9480
aa(lp9481
S'17.4964'
p9482
aS'78.3619'
p9483
aa(lp9484
S'17.4964'
p9485
aS'78.3619'
p9486
aa(lp9487
S'17.4964'
p9488
aS'78.3619'
p9489
aa(lp9490
S'17.4964'
p9491
aS'78.3619'
p9492
aa(lp9493
S'17.4964'
p9494
aS'78.3619'
p9495
aa(lp9496
S'17.4964'
p9497
aS'78.3618'
p9498
aa(lp9499
S'17.4964'
p9500
aS'78.3618'
p9501
aa(lp9502
S'17.4964'
p9503
aS'78.3618'
p9504
aa(lp9505
S'17.4964'
p9506
aS'78.3618'
p9507
aa(lp9508
S'17.4964'
p9509
aS'78.3618'
p9510
aa(lp9511
S'17.4964'
p9512
aS'78.3618'
p9513
aa(lp9514
S'17.4964'
p9515
aS'78.3618'
p9516
aa(lp9517
S'17.4964'
p9518
aS'78.3618'
p9519
aa(lp9520
S'17.4964'
p9521
aS'78.3618'
p9522
aa(lp9523
S'17.4964'
p9524
aS'78.3618'
p9525
aa(lp9526
S'17.4964'
p9527
aS'78.3618'
p9528
aa(lp9529
S'17.4964'
p9530
aS'78.3617'
p9531
aa(lp9532
S'17.4964'
p9533
aS'78.3617'
p9534
aa(lp9535
S'17.4964'
p9536
aS'78.3617'
p9537
aa(lp9538
S'17.4964'
p9539
aS'78.3617'
p9540
aa(lp9541
S'17.4964'
p9542
aS'78.3617'
p9543
aa(lp9544
S'17.4964'
p9545
aS'78.3617'
p9546
aa(lp9547
S'17.4964'
p9548
aS'78.3617'
p9549
aa(lp9550
S'17.4964'
p9551
aS'78.3617'
p9552
aa(lp9553
S'17.4964'
p9554
aS'78.3617'
p9555
aa(lp9556
S'17.4964'
p9557
aS'78.3617'
p9558
aa(lp9559
S'17.4964'
p9560
aS'78.3616'
p9561
aa.