ccopy_reg
_reconstructor
p0
(cgoogle.oauth2.credentials
Credentials
p1
c__builtin__
object
p2
Ntp3
Rp4
(dp5
S'_token_uri'
p6
Vhttps://oauth2.googleapis.com/token
p7
sS'_scopes'
p8
(lp9
S'https://www.googleapis.com/auth/calendar.readonly'
p10
asS'_id_token'
p11
NsS'token'
p12
Vya29.Glz2Bgwm4wtkLDzYyfwv5BunKCsSM8LcW0Rvq2xl2NMswEfHmbsOIIR7Lt5zAKO-slyor8RMmCnBP_oB-LLmCb6-Wo3BfuCpjGtAKniSMuuvbz7fH8-ZCapg2WFOsQ
p13
sS'_refresh_token'
p14
V1/yo5WNfQ3iKwSOrUJCGnajrweUidztwi_50lWoQXrP3M
p15
sS'_client_secret'
p16
VNxNU9aCgdVvcB4SqqF_LTtTo
p17
sS'_client_id'
p18
V1089076902928-9353ebqk4pc05o3tkrg4lv4vvoc3vl2v.apps.googleusercontent.com
p19
sS'expiry'
p20
cdatetime
datetime
p21
(S'\x07\xe3\x04\x19\x06\x0b\x00\x0e\x9e\x08'
p22
tp23
Rp24
sb.